ccopy_reg
_reconstructor
p0
(copenalea.mtg.mtg
MTG
p1
c__builtin__
object
p2
Ntp3
Rp4
(dp5
S'_components'
p6
(dp7
I0
(lp8
I1
asI1
(lp9
I2
asI2
(lp10
I3
asI10
(lp11
I11
asI18
(lp12
I19
asI30
(lp13
I31
assS'_scale'
p14
(dp15
I0
I0
sI1
I1
sI2
I2
sI3
I3
sI4
I3
sI5
I3
sI6
I3
sI7
I3
sI8
I3
sI9
I3
sI10
I2
sI11
I3
sI12
I3
sI13
I3
sI14
I3
sI15
I3
sI16
I3
sI17
I3
sI18
I2
sI19
I3
sI20
I3
sI21
I3
sI22
I3
sI23
I3
sI24
I3
sI25
I3
sI26
I3
sI27
I3
sI28
I3
sI29
I3
sI30
I2
sI31
I3
sI32
I3
sI33
I3
sI34
I3
sI35
I3
sI36
I3
sI37
I3
sI38
I3
sI39
I3
sI40
I3
sI41
I3
sI42
I3
sI43
I3
sI44
I3
sI45
I3
sI46
I3
sI47
I3
sI48
I3
sI49
I3
sI50
I3
sI51
I3
sI52
I3
sI53
I3
sI54
I3
sI55
I3
ssS'_children'
p16
(dp17
I2
(lp18
I10
aI18
aI30
asI3
(lp19
I4
asI4
(lp20
I5
asI5
(lp21
I6
asI6
(lp22
I7
asI7
(lp23
I8
asI8
(lp24
I9
asI9
(lp25
I11
aI15
asI11
(lp26
I12
asI12
(lp27
I13
asI13
(lp28
I14
asI15
(lp29
I16
asI16
(lp30
I17
asI17
(lp31
I19
aI27
asI19
(lp32
I20
asI20
(lp33
I21
asI21
(lp34
I22
asI22
(lp35
I23
asI23
(lp36
I24
asI24
(lp37
I25
asI25
(lp38
I26
asI27
(lp39
I28
asI28
(lp40
I29
asI29
(lp41
I31
aI44
asI31
(lp42
I32
asI32
(lp43
I33
asI33
(lp44
I34
asI34
(lp45
I35
asI35
(lp46
I36
asI36
(lp47
I37
asI37
(lp48
I38
asI38
(lp49
I39
asI39
(lp50
I40
asI40
(lp51
I41
asI41
(lp52
I42
asI42
(lp53
I43
asI44
(lp54
I45
asI45
(lp55
I46
asI46
(lp56
I47
asI47
(lp57
I48
asI48
(lp58
I49
asI49
(lp59
I50
asI50
(lp60
I51
asI51
(lp61
I52
asI52
(lp62
I53
asI53
(lp63
I54
asI54
(lp64
I55
assS'_root'
p65
I0
sS'_complex'
p66
(dp67
I1
I0
sI2
I1
sI3
I2
sI4
I2
sI5
I2
sI6
I2
sI7
I2
sI8
I2
sI9
I2
sI10
I1
sI11
I10
sI12
I10
sI13
I10
sI14
I10
sI15
I2
sI16
I2
sI17
I2
sI18
I1
sI19
I18
sI20
I18
sI21
I18
sI22
I18
sI23
I18
sI24
I18
sI25
I18
sI26
I18
sI27
I2
sI28
I2
sI29
I2
sI30
I1
sI31
I30
sI32
I30
sI33
I30
sI34
I30
sI35
I30
sI36
I30
sI37
I30
sI38
I30
sI39
I30
sI40
I30
sI41
I30
sI42
I30
sI43
I30
sI44
I2
sI45
I2
sI46
I2
sI47
I2
sI48
I2
sI49
I2
sI50
I2
sI51
I2
sI52
I2
sI53
I2
sI54
I2
sI55
I2
ssS'_parent'
p68
(dp69
I0
NsI1
NsI2
NsI3
NsI4
I3
sI5
I4
sI6
I5
sI7
I6
sI8
I7
sI9
I8
sI10
I2
sI11
I9
sI12
I11
sI13
I12
sI14
I13
sI15
I9
sI16
I15
sI17
I16
sI18
I2
sI19
I17
sI20
I19
sI21
I20
sI22
I21
sI23
I22
sI24
I23
sI25
I24
sI26
I25
sI27
I17
sI28
I27
sI29
I28
sI30
I2
sI31
I29
sI32
I31
sI33
I32
sI34
I33
sI35
I34
sI36
I35
sI37
I36
sI38
I37
sI39
I38
sI40
I39
sI41
I40
sI42
I41
sI43
I42
sI44
I29
sI45
I44
sI46
I45
sI47
I46
sI48
I47
sI49
I48
sI50
I49
sI51
I50
sI52
I51
sI53
I52
sI54
I53
sI55
I54
ssS'_graph_properties'
p70
(dp71
sS'_properties'
p72
(dp73
S'interceptedLightAmount'
p74
(dp75
I1
F0.0
sI2
F0.0
sI3
F0.012664664198291013
sI4
F0.26629397923474823
sI5
F0.0006892045672263742
sI6
F0.5191153186223387
sI7
F0.19480512968761715
sI8
F0.06606323847018106
sI9
F0.935824465916821
sI10
F0.0
sI11
F0.03957210620725378
sI12
F0.04029371718735755
sI13
F0.16804215764134217
sI14
F0.004697079072164045
sI15
F0.06434540443955085
sI16
F1.0408845455731217
sI17
F0.6207870879811037
sI18
F0.0
sI19
F0.004927970926370231
sI20
F0.005024017000061191
sI21
F0.004280050401763444
sI22
F0.010926421643362435
sI23
F0.09628928472974065
sI24
F0.003916449541280392
sI25
F0.09489595089703179
sI26
F0.007522104373869175
sI27
F0.10558188054293072
sI28
F1.1094833871156016
sI29
F0.013050253154018343
sI30
F0.0
sI31
F0.0028683030507049715
sI32
F0.0012968080610941772
sI33
F0.0005345787889981205
sI34
F0.15049706952813519
sI35
F0.0014049511614368675
sI36
F0.04178213986992235
sI37
F0.18639566816576178
sI38
F0.1669544890869042
sI39
F0.34437690082859795
sI40
F0.0020852812254813185
sI41
F0.12978844639209444
sI42
F0.0005435057867160553
sI43
F0.0
sI44
F0.7282341981138601
sI45
F0.6090907904606603
sI46
F0.1612877025625365
sI47
F1.15309474183231
sI48
F0.1965003269330853
sI49
F1.1562696013323253
sI50
F0.815733440338372
sI51
F0.9244137387988659
sI52
F0.7501197437268425
sI53
F0.41266875092604166
sI54
F0.12561426029567016
sI55
F0.04163231336105608
ssS'star_pgl'
p76
(dp77
I3
F0.0
sI4
F0.0
sI5
F0.0
sI6
F0.0
sI7
F0.0
sI8
F0.0
sI9
F0.0
sI11
F0.0
sI12
F0.0
sI13
F0.0
sI14
F0.0
sI15
F0.0
sI16
F0.0
sI17
F0.0
sI19
F0.0
sI20
F0.0
sI21
F0.0
sI22
F0.0
sI23
F0.0
sI24
F0.0
sI25
F0.0
sI26
F0.0
sI27
F0.0
sI28
F0.0
sI29
F0.0
sI31
F0.0
sI32
F0.0
sI33
F0.0
sI34
F0.0
sI35
F0.0
sI36
F0.0
sI37
F0.0
sI38
F0.0
sI39
F0.0
sI40
F0.0
sI41
F0.0
sI42
F0.0
sI43
F0.0
sI44
F0.0
sI45
F0.0
sI46
F0.0
sI47
F0.0
sI48
F0.0
sI49
F0.0
sI50
F0.0
sI51
F0.0
sI52
F0.0
sI53
F0.0
sI54
F0.0
sI55
F0.0
ssS'color'
p78
(dp79
I3
(lp80
I221
aI255
aI24
asI4
(lp81
I141
aI0
aI0
asI5
(lp82
I0
aI0
aI168
asI6
(lp83
I159
aI0
aI0
asI7
(lp84
I255
aI103
aI0
asI8
(lp85
I215
aI255
aI31
asI9
(lp86
I145
aI0
aI0
asI11
(lp87
I255
aI115
aI0
asI12
(lp88
I255
aI192
aI0
asI13
(lp89
I255
aI55
aI0
asI14
(lp90
I0
aI152
aI255
asI15
(lp91
I176
aI255
aI70
asI16
(lp92
I150
aI0
aI0
asI17
(lp93
I241
aI7
aI0
asI19
(lp94
I105
aI255
aI141
asI20
(lp95
I37
aI255
aI208
asI21
(lp96
I0
aI184
aI255
asI22
(lp97
I41
aI255
aI205
asI23
(lp98
I255
aI200
aI0
asI24
(lp99
I0
aI68
aI255
asI25
(lp100
I244
aI248
aI2
asI26
(lp101
I0
aI124
aI255
asI27
(lp102
I237
aI255
aI8
asI28
(lp103
I141
aI0
aI0
asI29
(lp104
I0
aI208
aI255
asI31
(lp105
I37
aI255
aI208
asI32
(lp106
I0
aI72
aI255
asI33
(lp107
I0
aI0
aI127
asI34
(lp108
I255
aI115
aI0
asI35
(lp109
I0
aI0
aI204
asI36
(lp110
I157
aI255
aI89
asI37
(lp111
I255
aI155
aI0
asI38
(lp112
I255
aI185
aI0
asI39
(lp113
I255
aI55
aI0
asI40
(lp114
I0
aI28
aI255
asI41
(lp115
I255
aI26
aI0
asI42
(lp116
I0
aI132
aI255
asI44
(lp117
I213
aI0
aI0
asI45
(lp118
I245
aI11
aI0
asI46
(lp119
I255
aI196
aI0
asI47
(lp120
I132
aI0
aI0
asI48
(lp121
I255
aI166
aI0
asI49
(lp122
I132
aI0
aI0
asI50
(lp123
I195
aI0
aI0
asI51
(lp124
I159
aI0
aI0
asI52
(lp125
I136
aI0
aI0
asI53
(lp126
I145
aI0
aI0
asI54
(lp127
I127
aI0
aI0
asI55
(lp128
I127
aI0
aI0
assS'ta_pgl'
p129
(dp130
I3
F0.0
sI4
F0.0
sI5
F0.0
sI6
F0.0
sI7
F0.0
sI8
F0.0
sI9
F0.0
sI11
F0.0
sI12
F0.0
sI13
F0.0
sI14
F0.0
sI15
F0.0
sI16
F0.0
sI17
F0.0
sI19
F0.0
sI20
F0.0
sI21
F0.0
sI22
F0.0
sI23
F0.0
sI24
F0.0
sI25
F0.0
sI26
F0.0
sI27
F0.0
sI28
F0.0
sI29
F0.0
sI31
F0.0
sI32
F0.0
sI33
F0.0
sI34
F0.0
sI35
F0.0
sI36
F0.0
sI37
F0.0
sI38
F0.0
sI39
F0.0
sI40
F0.0
sI41
F0.0
sI42
F0.0
sI43
F0.0
sI44
F0.0
sI45
F0.0
sI46
F0.0
sI47
F0.0
sI48
F0.0
sI49
F0.0
sI50
F0.0
sI51
F0.0
sI52
F0.0
sI53
F0.0
sI54
F0.0
sI55
F0.0
ssS'leaf_area'
p131
(dp132
I3
F0.0004
sI4
F0.0007
sI5
F0.0011
sI6
F0.0015
sI7
F0.0018
sI8
F0.0022
sI9
F0.0025
sI11
F0.0004
sI12
F0.0007
sI13
F0.0011
sI14
F0.0015
sI15
F0.0029
sI16
F0.0029
sI17
F0.0029
sI19
F0.0004
sI20
F0.0007
sI21
F0.0011
sI22
F0.0015
sI23
F0.0018
sI24
F0.0022
sI25
F0.0025
sI26
F0.0029
sI27
F0.0029
sI28
F0.0029
sI29
F0.0029
sI31
F0.0004
sI32
F0.0007
sI33
F0.0011
sI34
F0.0015
sI35
F0.0018
sI36
F0.0022
sI37
F0.0025
sI38
F0.0028
sI39
F0.0023
sI40
F0.0015
sI41
F0.0007
sI42
F0.0002
sI43
F0.0
sI44
F0.0029
sI45
F0.0029
sI46
F0.0029
sI47
F0.0029
sI48
F0.0029
sI49
F0.0029
sI50
F0.0029
sI51
F0.0027
sI52
F0.0019
sI53
F0.0011
sI54
F0.0003
sI55
F0.0001
ssS'YY'
p133
(dp134
I1
F0.0
sI2
F0.0
sI3
F0.0
sI4
F0.0
sI5
F0.0
sI6
F0.0
sI7
F0.0
sI8
F0.0
sI9
F0.0
sI11
F0.0031
sI12
F0.0062
sI13
F0.0093
sI14
F0.0124
sI15
F0.0
sI16
F0.0
sI17
F0.0
sI19
F0.0
sI20
F0.0
sI21
F0.0
sI22
F0.0
sI23
F0.0
sI24
F0.0
sI25
F0.0
sI26
F0.0
sI27
F0.0
sI28
F0.0
sI29
F0.0
sI31
F-0.0031
sI32
F-0.0062
sI33
F-0.0093
sI34
F-0.0124
sI35
F-0.0155
sI36
F-0.0186
sI37
F-0.0217
sI38
F-0.0247
sI39
F-0.0302
sI40
F-0.0343
sI41
F-0.0371
sI42
F-0.0385
sI43
F0.0
sI44
F0.0
sI45
F0.0
sI46
F0.0
sI47
F0.0
sI48
F0.0
sI49
F0.0
sI50
F0.0
sI51
F0.0
sI52
F0.0
sI53
F0.0
sI54
F0.0
sI55
F0.0
ssS'XX'
p135
(dp136
I1
F0.0
sI2
F0.0
sI3
F0.0
sI4
F0.0
sI5
F0.0
sI6
F0.0
sI7
F0.0
sI8
F0.0
sI9
F0.0
sI11
F0.001
sI12
F0.002
sI13
F0.003
sI14
F0.004
sI15
F0.0
sI16
F0.0
sI17
F0.0
sI19
F0.0033
sI20
F0.0065
sI21
F0.0098
sI22
F0.013
sI23
F0.0163
sI24
F0.0195
sI25
F0.0228
sI26
F0.026
sI27
F0.0
sI28
F0.0
sI29
F0.0
sI31
F0.001
sI32
F0.002
sI33
F0.003
sI34
F0.004
sI35
F0.005
sI36
F0.006
sI37
F0.007
sI38
F0.008
sI39
F0.0098
sI40
F0.0111
sI41
F0.012
sI42
F0.0125
sI43
F0.0
sI44
F0.0
sI45
F0.0
sI46
F0.0
sI47
F0.0
sI48
F0.0
sI49
F0.0
sI50
F0.0
sI51
F0.0
sI52
F0.0
sI53
F0.0
sI54
F0.0
sI55
F0.0
ssS'edge_type'
p137
(dp138
I4
S'<'
p139
sI5
g139
sI6
g139
sI7
g139
sI8
g139
sI9
g139
sI10
S'+'
p140
sI11
g140
sI12
g139
sI13
g139
sI14
g139
sI15
g139
sI16
g139
sI17
g139
sI18
g140
sI19
g140
sI20
g139
sI21
g139
sI22
g139
sI23
g139
sI24
g139
sI25
g139
sI26
g139
sI27
g139
sI28
g139
sI29
g139
sI30
g140
sI31
g140
sI32
g139
sI33
g139
sI34
g139
sI35
g139
sI36
g139
sI37
g139
sI38
g139
sI39
g139
sI40
g139
sI41
g139
sI42
g139
sI43
g139
sI44
g139
sI45
g139
sI46
g139
sI47
g139
sI48
g139
sI49
g139
sI50
g139
sI51
g139
sI52
g139
sI53
g139
sI54
g139
sI55
g139
ssS'radius'
p141
(dp142
I3
F0.0028
sI4
F0.0028
sI5
F0.0028
sI6
F0.0028
sI7
F0.0027
sI8
F0.0027
sI9
F0.0027
sI11
F0.0011
sI12
F0.001
sI13
F0.0008
sI14
F0.0006
sI15
F0.0026
sI16
F0.0025
sI17
F0.0025
sI19
F0.0014
sI20
F0.0013
sI21
F0.0012
sI22
F0.0011
sI23
F0.0011
sI24
F0.0009
sI25
F0.0008
sI26
F0.0006
sI27
F0.0022
sI28
F0.0022
sI29
F0.0022
sI31
F0.0016
sI32
F0.0016
sI33
F0.0015
sI34
F0.0015
sI35
F0.0014
sI36
F0.0013
sI37
F0.0012
sI38
F0.0011
sI39
F0.001
sI40
F0.0009
sI41
F0.0008
sI42
F0.0006
sI43
F0.0006
sI44
F0.0016
sI45
F0.0015
sI46
F0.0015
sI47
F0.0014
sI48
F0.0013
sI49
F0.0012
sI50
F0.0011
sI51
F0.001
sI52
F0.0009
sI53
F0.0008
sI54
F0.0006
sI55
F0.0006
ssS'ZZ'
p143
(dp144
I1
F0.0
sI2
F0.0
sI3
F0.0181
sI4
F0.0362
sI5
F0.0543
sI6
F0.0724
sI7
F0.0905
sI8
F0.1086
sI9
F0.1267
sI11
F0.13
sI12
F0.1332
sI13
F0.1365
sI14
F0.1397
sI15
F0.1448
sI16
F0.1629
sI17
F0.181
sI19
F0.1843
sI20
F0.1875
sI21
F0.1908
sI22
F0.194
sI23
F0.1973
sI24
F0.2005
sI25
F0.2038
sI26
F0.207
sI27
F0.1991
sI28
F0.2172
sI29
F0.2353
sI31
F0.2386
sI32
F0.2418
sI33
F0.2451
sI34
F0.2483
sI35
F0.2516
sI36
F0.2548
sI37
F0.2581
sI38
F0.2613
sI39
F0.267
sI40
F0.2714
sI41
F0.2743
sI42
F0.2757
sI43
F0.0
sI44
F0.2534
sI45
F0.2715
sI46
F0.2896
sI47
F0.3077
sI48
F0.3258
sI49
F0.3439
sI50
F0.362
sI51
F0.3801
sI52
F0.3942
sI53
F0.4043
sI54
F0.4104
sI55
F0.4125
ssS'year'
p145
(dp146
I1
S'1994'
p147
sI2
S'1994'
p148
sI3
S'1994'
p149
sI4
S'1994'
p150
sI5
S'1994'
p151
sI6
S'1994'
p152
sI7
S'1994'
p153
sI8
S'1994'
p154
sI9
S'1994'
p155
sI10
S'1994'
p156
sI11
S'1994'
p157
sI12
S'1994'
p158
sI13
S'1994'
p159
sI14
S'1994'
p160
sI15
S'1994'
p161
sI16
S'1994'
p162
sI17
S'1994'
p163
sI18
S'1994'
p164
sI19
S'1994'
p165
sI20
S'1994'
p166
sI21
S'1994'
p167
sI22
S'1994'
p168
sI23
S'1994'
p169
sI24
S'1994'
p170
sI25
S'1994'
p171
sI26
S'1994'
p172
sI27
S'1994'
p173
sI28
S'1994'
p174
sI29
S'1994'
p175
sI30
S'1994'
p176
sI31
S'1994'
p177
sI32
S'1994'
p178
sI33
S'1994'
p179
sI34
S'1994'
p180
sI35
S'1994'
p181
sI36
S'1994'
p182
sI37
S'1994'
p183
sI38
S'1994'
p184
sI39
S'1994'
p185
sI40
S'1994'
p186
sI41
S'1994'
p187
sI42
S'1994'
p188
sI43
S'1994'
p189
sI44
S'1994'
p190
sI45
S'1994'
p191
sI46
S'1994'
p192
sI47
S'1994'
p193
sI48
S'1994'
p194
sI49
S'1994'
p195
sI50
S'1994'
p196
sI51
S'1994'
p197
sI52
S'1994'
p198
sI53
S'1994'
p199
sI54
S'1994'
p200
sI55
S'1994'
p201
ssS'lstring_id'
p202
(dp203
I3
S'2'
p204
sI4
S'3'
p205
sI5
S'4'
p206
sI6
S'5'
p207
sI7
S'6'
p208
sI8
S'7'
p209
sI9
S'8'
p210
sI11
S'12'
p211
sI12
S'13'
p212
sI13
S'14'
p213
sI14
S'15'
p214
sI15
S'18'
p215
sI16
S'19'
p216
sI17
S'20'
p217
sI19
S'24'
p218
sI20
S'25'
p219
sI21
S'26'
p220
sI22
S'27'
p221
sI23
S'28'
p222
sI24
S'29'
p223
sI25
S'30'
p224
sI26
S'31'
p225
sI27
S'34'
p226
sI28
S'35'
p227
sI29
S'36'
p228
sI31
S'40'
p229
sI32
S'41'
p230
sI33
S'42'
p231
sI34
S'43'
p232
sI35
S'44'
p233
sI36
S'45'
p234
sI37
S'46'
p235
sI38
S'47'
p236
sI39
S'48'
p237
sI40
S'53'
p238
sI41
S'58'
p239
sI42
S'59'
p240
sI43
S'64'
p241
sI44
S'67'
p242
sI45
S'68'
p243
sI46
S'69'
p244
sI47
S'70'
p245
sI48
S'71'
p246
sI49
S'72'
p247
sI50
S'73'
p248
sI51
S'74'
p249
sI52
S'75'
p250
sI53
S'76'
p251
sI54
S'77'
p252
sI55
S'78'
p253
ssS'id'
p254
(dp255
I1
S'0'
p256
sI2
S'1'
p257
sI3
S'2'
p258
sI4
S'3'
p259
sI5
S'4'
p260
sI6
S'5'
p261
sI7
S'6'
p262
sI8
S'7'
p263
sI9
S'8'
p264
sI10
S'11'
p265
sI11
S'12'
p266
sI12
S'13'
p267
sI13
S'14'
p268
sI14
S'15'
p269
sI15
S'18'
p270
sI16
S'19'
p271
sI17
S'20'
p272
sI18
S'23'
p273
sI19
S'24'
p274
sI20
S'25'
p275
sI21
S'26'
p276
sI22
S'27'
p277
sI23
S'28'
p278
sI24
S'29'
p279
sI25
S'30'
p280
sI26
S'31'
p281
sI27
S'34'
p282
sI28
S'35'
p283
sI29
S'36'
p284
sI30
S'39'
p285
sI31
S'40'
p286
sI32
S'41'
p287
sI33
S'42'
p288
sI34
S'43'
p289
sI35
S'44'
p290
sI36
S'45'
p291
sI37
S'46'
p292
sI38
S'47'
p293
sI39
S'48'
p294
sI40
S'53'
p295
sI41
S'58'
p296
sI42
S'59'
p297
sI43
S'64'
p298
sI44
S'67'
p299
sI45
S'68'
p300
sI46
S'69'
p301
sI47
S'70'
p302
sI48
S'71'
p303
sI49
S'72'
p304
sI50
S'73'
p305
sI51
S'74'
p306
sI52
S'75'
p307
sI53
S'76'
p308
sI54
S'77'
p309
sI55
S'78'
p310
ssS'leaf_state'
p311
(dp312
I3
S'growing'
p313
sI4
S'growing'
p314
sI5
S'growing'
p315
sI6
S'growing'
p316
sI7
S'growing'
p317
sI8
S'growing'
p318
sI9
S'growing'
p319
sI11
S'growing'
p320
sI12
S'growing'
p321
sI13
S'growing'
p322
sI14
S'growing'
p323
sI15
S'growing'
p324
sI16
S'growing'
p325
sI17
S'growing'
p326
sI19
S'growing'
p327
sI20
S'growing'
p328
sI21
S'growing'
p329
sI22
S'growing'
p330
sI23
S'growing'
p331
sI24
S'growing'
p332
sI25
S'growing'
p333
sI26
S'growing'
p334
sI27
S'growing'
p335
sI28
S'growing'
p336
sI29
S'growing'
p337
sI31
S'growing'
p338
sI32
S'growing'
p339
sI33
S'growing'
p340
sI34
S'growing'
p341
sI35
S'growing'
p342
sI36
S'growing'
p343
sI37
S'growing'
p344
sI38
S'growing'
p345
sI39
S'growing'
p346
sI40
S'growing'
p347
sI41
S'growing'
p348
sI42
S'growing'
p349
sI43
S'growing'
p350
sI44
S'growing'
p351
sI45
S'growing'
p352
sI46
S'growing'
p353
sI47
S'growing'
p354
sI48
S'growing'
p355
sI49
S'growing'
p356
sI50
S'growing'
p357
sI51
S'growing'
p358
sI52
S'growing'
p359
sI53
S'growing'
p360
sI54
S'growing'
p361
sI55
S'growing'
p362
ssS'branch_id'
p363
(dp364
I3
S'0'
p365
sI4
S'0'
p366
sI5
S'0'
p367
sI6
S'0'
p368
sI7
S'0'
p369
sI8
S'0'
p370
sI9
S'0'
p371
sI11
S'1'
p372
sI12
S'1'
p373
sI13
S'1'
p374
sI14
S'1'
p375
sI15
S'0'
p376
sI16
S'0'
p377
sI17
S'0'
p378
sI19
S'2'
p379
sI20
S'2'
p380
sI21
S'2'
p381
sI22
S'2'
p382
sI23
S'2'
p383
sI24
S'2'
p384
sI25
S'2'
p385
sI26
S'2'
p386
sI27
S'0'
p387
sI28
S'0'
p388
sI29
S'0'
p389
sI31
S'3'
p390
sI32
S'3'
p391
sI33
S'3'
p392
sI34
S'3'
p393
sI35
S'3'
p394
sI36
S'3'
p395
sI37
S'3'
p396
sI38
S'3'
p397
sI39
S'3'
p398
sI40
S'3'
p399
sI41
S'3'
p400
sI42
S'3'
p401
sI43
S'3'
p402
sI44
S'0'
p403
sI45
S'0'
p404
sI46
S'0'
p405
sI47
S'0'
p406
sI48
S'0'
p407
sI49
S'0'
p408
sI50
S'0'
p409
sI51
S'0'
p410
sI52
S'0'
p411
sI53
S'0'
p412
sI54
S'0'
p413
sI55
S'0'
p414
ssS'sa_pgl'
p415
(dp416
I3
F0.0
sI4
F0.0
sI5
F0.0
sI6
F0.0
sI7
F0.0
sI8
F0.0
sI9
F0.0
sI11
F0.0
sI12
F0.0
sI13
F0.0
sI14
F0.0
sI15
F0.0
sI16
F0.0
sI17
F0.0
sI19
F0.0
sI20
F0.0
sI21
F0.0
sI22
F0.0
sI23
F0.0
sI24
F0.0
sI25
F0.0
sI26
F0.0
sI27
F0.0
sI28
F0.0
sI29
F0.0
sI31
F0.0
sI32
F0.0
sI33
F0.0
sI34
F0.0
sI35
F0.0
sI36
F0.0
sI37
F0.0
sI38
F0.0
sI39
F0.0
sI40
F0.0
sI41
F0.0
sI42
F0.0
sI43
F0.0
sI44
F0.0
sI45
F0.0
sI46
F0.0
sI47
F0.0
sI48
F0.0
sI49
F0.0
sI50
F0.0
sI51
F0.0
sI52
F0.0
sI53
F0.0
sI54
F0.0
sI55
F0.0
ssS'observation'
p417
(dp418
I1
S'0.0'
p419
sI3
S'trunk'
p420
sI4
S'trunk'
p421
sI5
S'trunk'
p422
sI6
S'trunk'
p423
sI7
S'trunk'
p424
sI8
S'trunk'
p425
sI9
S'trunk'
p426
sI11
S'small'
p427
sI12
S'small'
p428
sI13
S'small'
p429
sI14
S'small'
p430
sI15
S'trunk'
p431
sI16
S'trunk'
p432
sI17
S'trunk'
p433
sI19
S'medium'
p434
sI20
S'medium'
p435
sI21
S'medium'
p436
sI22
S'medium'
p437
sI23
S'medium'
p438
sI24
S'medium'
p439
sI25
S'medium'
p440
sI26
S'medium'
p441
sI27
S'trunk'
p442
sI28
S'trunk'
p443
sI29
S'trunk'
p444
sI31
S'large'
p445
sI32
S'large'
p446
sI33
S'large'
p447
sI34
S'large'
p448
sI35
S'large'
p449
sI36
S'large'
p450
sI37
S'large'
p451
sI38
S'large'
p452
sI39
S'large'
p453
sI40
S'large'
p454
sI41
S'large'
p455
sI42
S'large'
p456
sI43
S'large'
p457
sI44
S'trunk'
p458
sI45
S'trunk'
p459
sI46
S'trunk'
p460
sI47
S'trunk'
p461
sI48
S'trunk'
p462
sI49
S'trunk'
p463
sI50
S'trunk'
p464
sI51
S'trunk'
p465
sI52
S'trunk'
p466
sI53
S'trunk'
p467
sI54
S'trunk'
p468
sI55
S'trunk'
p469
ssS'zone'
p470
(dp471
I3
S'None'
p472
sI4
S'None'
p473
sI5
S'None'
p474
sI6
S'None'
p475
sI7
S'None'
p476
sI8
S'None'
p477
sI9
S'None'
p478
sI11
S'dormant_start'
p479
sI12
S'dormant_start'
p480
sI13
S'dormant_start'
p481
sI14
S'dormant_start'
p482
sI15
S'None'
p483
sI16
S'None'
p484
sI17
S'None'
p485
sI19
S'dormant_start'
p486
sI20
S'dormant_start'
p487
sI21
S'dormant_start'
p488
sI22
S'dormant_start'
p489
sI23
S'dormant_end'
p490
sI24
S'dormant_end'
p491
sI25
S'dormant_end'
p492
sI26
S'dormant_end'
p493
sI27
S'None'
p494
sI28
S'None'
p495
sI29
S'None'
p496
sI31
S'dormant_start'
p497
sI32
S'dormant_start'
p498
sI33
S'dormant_start'
p499
sI34
S'dormant_start'
p500
sI35
S'dormant_start'
p501
sI36
S'dormant_start'
p502
sI37
S'dormant_start'
p503
sI38
S'dormant_start'
p504
sI39
S'small'
p505
sI40
S'small'
p506
sI41
S'small'
p507
sI42
S'small'
p508
sI43
S'small'
p509
sI44
S'None'
p510
sI45
S'None'
p511
sI46
S'None'
p512
sI47
S'None'
p513
sI48
S'None'
p514
sI49
S'None'
p515
sI50
S'None'
p516
sI51
S'None'
p517
sI52
S'None'
p518
sI53
S'None'
p519
sI54
S'None'
p520
sI55
S'None'
p521
ssS'geometry'
p522
(dp523
I3
(lp524
copenalea.plantgl.scenegraph._pglsg
Shape
p525
(copenalea.plantgl.scenegraph._pglsg
Translated
p526
(copenalea.plantgl.math._pglmath
Vector3
p527
(F0.0
F0.0
F0.0
tp528
Rp529
copenalea.plantgl.scenegraph._pglsg
Scaled
p530
(tRp531
tp532
Rp533
copenalea.plantgl.scenegraph._pglsg
Material
p534
(S'APPID_4191139824_140617170185296'
p535
copenalea.plantgl.scenegraph._pglsg
Color3
p536
(I49
I29
I25
tp537
Rp538
F2.0
g536
(I40
I40
I40
tp539
Rp540
g536
(I0
I0
I0
tp541
Rp542
F1.0
F0.0
tp543
Rp544
I2
I4294967295
tp545
Rp546
ag525
(g526
(g527
(F0.0
F0.0
F0.181
tp547
Rp548
g530
(tRp549
tp550
Rp551
g534
(S'APPID_4234167168_140617169243888'
p552
g536
(I0
I31
I0
tp553
Rp554
F2.0
g536
(I40
I40
I40
tp555
Rp556
g536
(I0
I0
I0
tp557
Rp558
F1.0
F0.0
tp559
Rp560
I2
I4294967295
tp561
Rp562
ag525
(g526
(g527
(F-0.014265843751530002
F0.01963516376914
F0.181
tp563
Rp564
g530
(tRp565
tp566
Rp567
g534
(S'APPID_4234264384_140617205585376'
p568
g536
(I0
I58
I6
tp569
Rp570
F2.0
g536
(I40
I40
I40
tp571
Rp572
g536
(I0
I0
I0
tp573
Rp574
F1.0
F0.0
tp575
Rp576
I2
I4294967295
tp577
Rp578
asI4
(lp579
g525
(g526
(g527
(F0.0
F0.0
F0.181
tp580
Rp581
g530
(tRp582
tp583
Rp584
g534
(S'APPID_4234564528_140617205565792'
p585
g536
(I49
I29
I25
tp586
Rp587
F2.0
g536
(I40
I40
I40
tp588
Rp589
g536
(I0
I0
I0
tp590
Rp591
F1.0
F0.0
tp592
Rp593
I3
I4294967295
tp594
Rp595
ag525
(g526
(g527
(F0.0
F0.0
F0.362
tp596
Rp597
g530
(tRp598
tp599
Rp600
g534
(S'APPID_4235073088_140617169426912'
p601
g536
(I0
I31
I0
tp602
Rp603
F2.0
g536
(I40
I40
I40
tp604
Rp605
g536
(I0
I0
I0
tp606
Rp607
F1.0
F0.0
tp608
Rp609
I3
I4294967295
tp610
Rp611
ag525
(g526
(g527
(F-0.03264361090188
F0.01060661644996
F0.362
tp612
Rp613
g530
(tRp614
tp615
Rp616
g534
(S'APPID_4234206592_140617170148336'
p617
g536
(I0
I58
I6
tp618
Rp619
F2.0
g536
(I40
I40
I40
tp620
Rp621
g536
(I0
I0
I0
tp622
Rp623
F1.0
F0.0
tp624
Rp625
I3
I4294967295
tp626
Rp627
asI5
(lp628
g525
(g526
(g527
(F0.0
F0.0
F0.362
tp629
Rp630
g530
(tRp631
tp632
Rp633
g534
(S'APPID_4234813200_140617205571520'
p634
g536
(I49
I29
I25
tp635
Rp636
F2.0
g536
(I40
I40
I40
tp637
Rp638
g536
(I0
I0
I0
tp639
Rp640
F1.0
F0.0
tp641
Rp642
I4
I4294967295
tp643
Rp644
ag525
(g526
(g527
(F0.0
F0.0
F0.5429999999999999
tp645
Rp646
g530
(tRp647
tp648
Rp649
g534
(S'APPID_4234254736_140617169438480'
p650
g536
(I0
I31
I0
tp651
Rp652
F2.0
g536
(I40
I40
I40
tp653
Rp654
g536
(I0
I0
I0
tp655
Rp656
F1.0
F0.0
tp657
Rp658
I4
I4294967295
tp659
Rp660
ag525
(g526
(g527
(F0.039980094399300004
F0.0129903988931
F0.5429999999999999
tp661
Rp662
g530
(tRp663
tp664
Rp665
g534
(S'APPID_4269803536_140617205089472'
p666
g536
(I0
I58
I6
tp667
Rp668
F2.0
g536
(I40
I40
I40
tp669
Rp670
g536
(I0
I0
I0
tp671
Rp672
F1.0
F0.0
tp673
Rp674
I4
I4294967295
tp675
Rp676
asI6
(lp677
g525
(g526
(g527
(F0.0
F0.0
F0.5429999999999999
tp678
Rp679
g530
(tRp680
tp681
Rp682
g534
(S'APPID_4234237056_140617205949648'
p683
g536
(I49
I29
I25
tp684
Rp685
F2.0
g536
(I40
I40
I40
tp686
Rp687
g536
(I0
I0
I0
tp688
Rp689
F1.0
F0.0
tp690
Rp691
I5
I4294967295
tp692
Rp693
ag525
(g526
(g527
(F0.0
F0.0
F0.724
tp694
Rp695
g530
(tRp696
tp697
Rp698
g534
(S'APPID_4269928656_140617204281392'
p699
g536
(I0
I31
I0
tp700
Rp701
F2.0
g536
(I40
I40
I40
tp702
Rp703
g536
(I0
I0
I0
tp704
Rp705
F1.0
F0.0
tp706
Rp707
I5
I4294967295
tp708
Rp709
ag525
(g526
(g527
(F-0.028531688090850004
F-0.0392703283473
F0.724
tp710
Rp711
g530
(tRp712
tp713
Rp714
g534
(S'APPID_4270421936_140617204566816'
p715
g536
(I0
I58
I6
tp716
Rp717
F2.0
g536
(I40
I40
I40
tp718
Rp719
g536
(I0
I0
I0
tp720
Rp721
F1.0
F0.0
tp722
Rp723
I5
I4294967295
tp724
Rp725
asI7
(lp726
g525
(g526
(g527
(F0.0
F0.0
F0.724
tp727
Rp728
g530
(tRp729
tp730
Rp731
g534
(S'APPID_4269880352_140617204184000'
p732
g536
(I49
I29
I25
tp733
Rp734
F2.0
g536
(I40
I40
I40
tp735
Rp736
g536
(I0
I0
I0
tp737
Rp738
F1.0
F0.0
tp739
Rp740
I6
I4294967295
tp741
Rp742
ag525
(g526
(g527
(F0.0
F0.0
F0.905
tp743
Rp744
g530
(tRp745
tp746
Rp747
g534
(S'APPID_4270506448_140617204810096'
p748
g536
(I0
I31
I0
tp749
Rp750
F2.0
g536
(I40
I40
I40
tp751
Rp752
g536
(I0
I0
I0
tp753
Rp754
F1.0
F0.0
tp755
Rp756
I6
I4294967295
tp757
Rp758
ag525
(g526
(g527
(F0.0
F0.054270055
F0.905
tp759
Rp760
g530
(tRp761
tp762
Rp763
g534
(S'APPID_4270620640_140617204557264'
p764
g536
(I0
I58
I6
tp765
Rp766
F2.0
g536
(I40
I40
I40
tp767
Rp768
g536
(I0
I0
I0
tp769
Rp770
F1.0
F0.0
tp771
Rp772
I6
I4294967295
tp773
Rp774
asI8
(lp775
g525
(g526
(g527
(F0.0
F0.0
F0.905
tp776
Rp777
g530
(tRp778
tp779
Rp780
g534
(S'APPID_4270506576_140617204760656'
p781
g536
(I49
I29
I25
tp782
Rp783
F2.0
g536
(I40
I40
I40
tp784
Rp785
g536
(I0
I0
I0
tp786
Rp787
F1.0
F0.0
tp788
Rp789
I7
I4294967295
tp790
Rp791
ag525
(g526
(g527
(F0.0
F0.0
F1.086
tp792
Rp793
g530
(tRp794
tp795
Rp796
g534
(S'APPID_4269963952_140617204267600'
p797
g536
(I0
I31
I0
tp798
Rp799
F2.0
g536
(I40
I40
I40
tp800
Rp801
g536
(I0
I0
I0
tp802
Rp803
F1.0
F0.0
tp804
Rp805
I7
I4294967295
tp806
Rp807
ag525
(g526
(g527
(F0.03494403673614
F-0.048096130591319994
F1.086
tp808
Rp809
g530
(tRp810
tp811
Rp812
g534
(S'APPID_4234199232_140617205603200'
p813
g536
(I0
I58
I6
tp814
Rp815
F2.0
g536
(I40
I40
I40
tp816
Rp817
g536
(I0
I0
I0
tp818
Rp819
F1.0
F0.0
tp820
Rp821
I7
I4294967295
tp822
Rp823
asI9
(lp824
g525
(g526
(g527
(F0.0
F0.0
F1.086
tp825
Rp826
g530
(tRp827
tp828
Rp829
g534
(S'APPID_4269844912_140617204148560'
p830
g536
(I49
I29
I25
tp831
Rp832
F2.0
g536
(I40
I40
I40
tp833
Rp834
g536
(I0
I0
I0
tp835
Rp836
F1.0
F0.0
tp837
Rp838
I8
I4294967295
tp839
Rp840
ag525
(g526
(g527
(F0.0
F0.0
F1.2670000000000001
tp841
Rp842
g530
(tRp843
tp844
Rp845
g534
(S'APPID_4270147216_140617204450864'
p846
g536
(I0
I31
I0
tp847
Rp848
F2.0
g536
(I40
I40
I40
tp849
Rp850
g536
(I0
I0
I0
tp851
Rp852
F1.0
F0.0
tp853
Rp854
I8
I4294967295
tp855
Rp856
ag525
(g526
(g527
(F-0.06107060028564
F0.01984316120988
F1.2670000000000001
tp857
Rp858
g530
(tRp859
tp860
Rp861
g534
(S'APPID_4233804896_140617205684224'
p862
g536
(I0
I58
I6
tp863
Rp864
F2.0
g536
(I40
I40
I40
tp865
Rp866
g536
(I0
I0
I0
tp867
Rp868
F1.0
F0.0
tp869
Rp870
I8
I4294967295
tp871
Rp872
asI11
(lp873
g525
(g526
(g527
(F0.0
F0.0
F1.2670000000000001
tp874
Rp875
g530
(tRp876
tp877
Rp878
g534
(S'APPID_4269871136_140617204174784'
p879
g536
(I49
I29
I25
tp880
Rp881
F2.0
g536
(I40
I40
I40
tp882
Rp883
g536
(I0
I0
I0
tp884
Rp885
F1.0
F0.0
tp886
Rp887
I12
I4294967295
tp888
Rp889
ag525
(g526
(g527
(F0.01005146
F0.030934999999999997
F1.2995270600000002
tp890
Rp891
g530
(tRp892
tp893
Rp894
g534
(S'APPID_4234153904_140617169967216'
p895
g536
(I0
I31
I0
tp896
Rp897
F2.0
g536
(I40
I40
I40
tp898
Rp899
g536
(I0
I0
I0
tp900
Rp901
F1.0
F0.0
tp902
Rp903
I12
I4294967295
tp904
Rp905
ag525
(g526
(g527
(F0.03184290837242511
F0.03446112161496428
F1.2894395392248559
tp906
Rp907
g530
(tRp908
tp909
Rp910
g534
(S'APPID_4235663200_140617169217280'
p911
g536
(I0
I58
I6
tp912
Rp913
F2.0
g536
(I40
I40
I40
tp914
Rp915
g536
(I0
I0
I0
tp916
Rp917
F1.0
F0.0
tp918
Rp919
I12
I4294967295
tp920
Rp921
asI12
(lp922
g525
(g526
(g527
(F0.01005146
F0.030934999999999997
F1.2995270600000002
tp923
Rp924
g530
(tRp925
tp926
Rp927
g534
(S'APPID_4234194224_140617169028272'
p928
g536
(I49
I29
I25
tp929
Rp930
F2.0
g536
(I40
I40
I40
tp931
Rp932
g536
(I0
I0
I0
tp933
Rp934
F1.0
F0.0
tp935
Rp936
I13
I4294967295
tp937
Rp938
ag525
(g526
(g527
(F0.02010292
F0.061869999999999994
F1.3320541200000002
tp939
Rp940
g530
(tRp941
tp942
Rp943
g534
(S'APPID_4233133264_140617169285024'
p944
g536
(I0
I31
I0
tp945
Rp946
F2.0
g536
(I40
I40
I40
tp947
Rp948
g536
(I0
I0
I0
tp949
Rp950
F1.0
F0.0
tp951
Rp952
I13
I4294967295
tp953
Rp954
ag525
(g526
(g527
(F0.002882435940931242
F0.043194828283852335
F1.3551367437048285
tp955
Rp956
g530
(tRp957
tp958
Rp959
g534
(S'APPID_4272822544_140617206401632'
p960
g536
(I0
I58
I6
tp961
Rp962
F2.0
g536
(I40
I40
I40
tp963
Rp964
g536
(I0
I0
I0
tp965
Rp966
F1.0
F0.0
tp967
Rp968
I13
I4294967295
tp969
Rp970
asI13
(lp971
g525
(g526
(g527
(F0.02010292
F0.061869999999999994
F1.3320541200000002
tp972
Rp973
g530
(tRp974
tp975
Rp976
g534
(S'APPID_4233124256_140617169161088'
p977
g536
(I49
I29
I25
tp978
Rp979
F2.0
g536
(I40
I40
I40
tp980
Rp981
g536
(I0
I0
I0
tp982
Rp983
F1.0
F0.0
tp984
Rp985
I14
I4294967295
tp986
Rp987
ag525
(g526
(g527
(F0.03015438
F0.092805
F1.3645811800000003
tp988
Rp989
g530
(tRp990
tp991
Rp992
g534
(S'APPID_4235237392_140617170018608'
p993
g536
(I0
I31
I0
tp994
Rp995
F2.0
g536
(I40
I40
I40
tp996
Rp997
g536
(I0
I0
I0
tp998
Rp999
F1.0
F0.0
tp1000
Rp1001
I14
I4294967295
tp1002
Rp1003
ag525
(g526
(g527
(F0.02653578165591936
F0.12370590654947501
F1.3363108554493113
tp1004
Rp1005
g530
(tRp1006
tp1007
Rp1008
g534
(S'APPID_4191901136_140617126239472'
p1009
g536
(I0
I58
I6
tp1010
Rp1011
F2.0
g536
(I40
I40
I40
tp1012
Rp1013
g536
(I0
I0
I0
tp1014
Rp1015
F1.0
F0.0
tp1016
Rp1017
I14
I4294967295
tp1018
Rp1019
asI14
(lp1020
g525
(g526
(g527
(F0.03015438
F0.092805
F1.3645811800000003
tp1021
Rp1022
g530
(tRp1023
tp1024
Rp1025
g534
(S'APPID_4272171392_140617126022960'
p1026
g536
(I49
I29
I25
tp1027
Rp1028
F2.0
g536
(I40
I40
I40
tp1029
Rp1030
g536
(I0
I0
I0
tp1031
Rp1032
F1.0
F0.0
tp1033
Rp1034
I15
I4294967295
tp1035
Rp1036
ag525
(g526
(g527
(F0.04020584
F0.12373999999999999
F1.3971082400000003
tp1037
Rp1038
g530
(tRp1039
tp1040
Rp1041
g534
(S'APPID_4191702704_140617207058064'
p1042
g536
(I0
I31
I0
tp1043
Rp1044
F2.0
g536
(I40
I40
I40
tp1045
Rp1046
g536
(I0
I0
I0
tp1047
Rp1048
F1.0
F0.0
tp1049
Rp1050
I15
I4294967295
tp1051
Rp1052
ag525
(g526
(g527
(F0.0713198193132515
F0.0924171228930207
F1.4172832819659213
tp1053
Rp1054
g530
(tRp1055
tp1056
Rp1057
g534
(S'APPID_4192108000_140617126414976'
p1058
g536
(I0
I58
I6
tp1059
Rp1060
F2.0
g536
(I40
I40
I40
tp1061
Rp1062
g536
(I0
I0
I0
tp1063
Rp1064
F1.0
F0.0
tp1065
Rp1066
I15
I4294967295
tp1067
Rp1068
asI15
(lp1069
g525
(g526
(g527
(F0.0
F0.0
F1.2670000000000001
tp1070
Rp1071
g530
(tRp1072
tp1073
Rp1074
g534
(S'APPID_4269809104_140617204133168'
p1075
g536
(I49
I29
I25
tp1076
Rp1077
F2.0
g536
(I40
I40
I40
tp1078
Rp1079
g536
(I0
I0
I0
tp1080
Rp1081
F1.0
F0.0
tp1082
Rp1083
I18
I4294967295
tp1084
Rp1085
ag525
(g526
(g527
(F0.0
F0.0
F1.4480000000000002
tp1086
Rp1087
g530
(tRp1088
tp1089
Rp1090
g534
(S'APPID_4234106240_140617169289072'
p1091
g536
(I0
I31
I0
tp1092
Rp1093
F2.0
g536
(I40
I40
I40
tp1094
Rp1095
g536
(I0
I0
I0
tp1096
Rp1097
F1.0
F0.0
tp1098
Rp1099
I18
I4294967295
tp1100
Rp1101
ag525
(g526
(g527
(F0.06528722180376
F0.02121323289992
F1.4480000000000002
tp1102
Rp1103
g530
(tRp1104
tp1105
Rp1106
g534
(S'APPID_4235565696_140617170457328'
p1107
g536
(I0
I58
I6
tp1108
Rp1109
F2.0
g536
(I40
I40
I40
tp1110
Rp1111
g536
(I0
I0
I0
tp1112
Rp1113
F1.0
F0.0
tp1114
Rp1115
I18
I4294967295
tp1116
Rp1117
asI16
(lp1118
g525
(g526
(g527
(F0.0
F0.0
F1.4480000000000002
tp1119
Rp1120
g530
(tRp1121
tp1122
Rp1123
g534
(S'APPID_4234070448_140617205637376'
p1124
g536
(I49
I29
I25
tp1125
Rp1126
F2.0
g536
(I40
I40
I40
tp1127
Rp1128
g536
(I0
I0
I0
tp1129
Rp1130
F1.0
F0.0
tp1131
Rp1132
I19
I4294967295
tp1133
Rp1134
ag525
(g526
(g527
(F0.0
F0.0
F1.6290000000000002
tp1135
Rp1136
g530
(tRp1137
tp1138
Rp1139
g534
(S'APPID_4235489536_140617205707104'
p1140
g536
(I0
I31
I0
tp1141
Rp1142
F2.0
g536
(I40
I40
I40
tp1143
Rp1144
g536
(I0
I0
I0
tp1145
Rp1146
F1.0
F0.0
tp1147
Rp1148
I19
I4294967295
tp1149
Rp1150
ag525
(g526
(g527
(F-0.04034990022084
F-0.055536630899919996
F1.6290000000000002
tp1151
Rp1152
g530
(tRp1153
tp1154
Rp1155
g534
(S'APPID_4272249888_140617206797440'
p1156
g536
(I0
I58
I6
tp1157
Rp1158
F2.0
g536
(I40
I40
I40
tp1159
Rp1160
g536
(I0
I0
I0
tp1161
Rp1162
F1.0
F0.0
tp1163
Rp1164
I19
I4294967295
tp1165
Rp1166
asI17
(lp1167
g525
(g526
(g527
(F0.0
F0.0
F1.6290000000000002
tp1168
Rp1169
g530
(tRp1170
tp1171
Rp1172
g534
(S'APPID_4235710576_140617169975328'
p1173
g536
(I49
I29
I25
tp1174
Rp1175
F2.0
g536
(I40
I40
I40
tp1176
Rp1177
g536
(I0
I0
I0
tp1178
Rp1179
F1.0
F0.0
tp1180
Rp1181
I20
I4294967295
tp1182
Rp1183
ag525
(g526
(g527
(F0.0
F0.0
F1.8100000000000003
tp1184
Rp1185
g530
(tRp1186
tp1187
Rp1188
g534
(S'APPID_4192187872_140617126293664'
p1189
g536
(I0
I31
I0
tp1190
Rp1191
F2.0
g536
(I40
I40
I40
tp1192
Rp1193
g536
(I0
I0
I0
tp1194
Rp1195
F1.0
F0.0
tp1196
Rp1197
I20
I4294967295
tp1198
Rp1199
ag525
(g526
(g527
(F0.0
F0.068646796
F1.8100000000000003
tp1200
Rp1201
g530
(tRp1202
tp1203
Rp1204
g534
(S'APPID_4191869200_140617126204960'
p1205
g536
(I0
I58
I6
tp1206
Rp1207
F2.0
g536
(I40
I40
I40
tp1208
Rp1209
g536
(I0
I0
I0
tp1210
Rp1211
F1.0
F0.0
tp1212
Rp1213
I20
I4294967295
tp1214
Rp1215
asI19
(lp1216
g525
(g526
(g527
(F0.0
F0.0
F1.8100000000000003
tp1217
Rp1218
g530
(tRp1219
tp1220
Rp1221
g534
(S'APPID_4272067248_140617206396064'
p1222
g536
(I49
I29
I25
tp1223
Rp1224
F2.0
g536
(I40
I40
I40
tp1225
Rp1226
g536
(I0
I0
I0
tp1227
Rp1228
F1.0
F0.0
tp1229
Rp1230
I24
I4294967295
tp1231
Rp1232
ag525
(g526
(g527
(F0.032527060000000003
F0.0
F1.8425270600000003
tp1233
Rp1234
g530
(tRp1235
tp1236
Rp1237
g534
(S'APPID_4272745232_140617206338432'
p1238
g536
(I0
I31
I0
tp1239
Rp1240
F2.0
g536
(I40
I40
I40
tp1241
Rp1242
g536
(I0
I0
I0
tp1243
Rp1244
F1.0
F0.0
tp1245
Rp1246
I24
I4294967295
tp1247
Rp1248
ag525
(g526
(g527
(F0.042614580775144385
F-0.01963516376914
F1.832439539224856
tp1249
Rp1250
g530
(tRp1251
tp1252
Rp1253
g534
(S'APPID_4272191056_140617206504336'
p1254
g536
(I0
I58
I6
tp1255
Rp1256
F2.0
g536
(I40
I40
I40
tp1257
Rp1258
g536
(I0
I0
I0
tp1259
Rp1260
F1.0
F0.0
tp1261
Rp1262
I24
I4294967295
tp1263
Rp1264
asI20
(lp1265
g525
(g526
(g527
(F0.032527060000000003
F0.0
F1.8425270600000003
tp1266
Rp1267
g530
(tRp1268
tp1269
Rp1270
g534
(S'APPID_4191902304_140617126205952'
p1271
g536
(I49
I29
I25
tp1272
Rp1273
F2.0
g536
(I40
I40
I40
tp1274
Rp1275
g536
(I0
I0
I0
tp1276
Rp1277
F1.0
F0.0
tp1278
Rp1279
I25
I4294967295
tp1280
Rp1281
ag525
(g526
(g527
(F0.06505412000000001
F0.0
F1.8750541200000004
tp1282
Rp1283
g530
(tRp1284
tp1285
Rp1286
g534
(S'APPID_4191850368_140617126184576'
p1287
g536
(I0
I31
I0
tp1288
Rp1289
F2.0
g536
(I40
I40
I40
tp1290
Rp1291
g536
(I0
I0
I0
tp1292
Rp1293
F1.0
F0.0
tp1294
Rp1295
I25
I4294967295
tp1296
Rp1297
ag525
(g526
(g527
(F0.04197149629517164
F0.01060661644996
F1.8981367437048287
tp1298
Rp1299
g530
(tRp1300
tp1301
Rp1302
g534
(S'APPID_4272555824_140617206859472'
p1303
g536
(I0
I58
I6
tp1304
Rp1305
F2.0
g536
(I40
I40
I40
tp1306
Rp1307
g536
(I0
I0
I0
tp1308
Rp1309
F1.0
F0.0
tp1310
Rp1311
I25
I4294967295
tp1312
Rp1313
asI21
(lp1314
g525
(g526
(g527
(F0.06505412000000001
F0.0
F1.8750541200000004
tp1315
Rp1316
g530
(tRp1317
tp1318
Rp1319
g534
(S'APPID_4192074272_140617126195520'
p1320
g536
(I49
I29
I25
tp1321
Rp1322
F2.0
g536
(I40
I40
I40
tp1323
Rp1324
g536
(I0
I0
I0
tp1325
Rp1326
F1.0
F0.0
tp1327
Rp1328
I26
I4294967295
tp1329
Rp1330
ag525
(g526
(g527
(F0.09758118000000002
F0.0
F1.9075811800000004
tp1331
Rp1332
g530
(tRp1333
tp1334
Rp1335
g534
(S'APPID_4272549184_140617126012480'
p1336
g536
(I0
I31
I0
tp1337
Rp1338
F2.0
g536
(I40
I40
I40
tp1339
Rp1340
g536
(I0
I0
I0
tp1341
Rp1342
F1.0
F0.0
tp1343
Rp1344
I26
I4294967295
tp1345
Rp1346
ag525
(g526
(g527
(F0.12585150455068905
F0.0129903988931
F1.8793108554493114
tp1347
Rp1348
g530
(tRp1349
tp1350
Rp1351
g534
(S'APPID_4192108608_140617126412256'
p1352
g536
(I0
I58
I6
tp1353
Rp1354
F2.0
g536
(I40
I40
I40
tp1355
Rp1356
g536
(I0
I0
I0
tp1357
Rp1358
F1.0
F0.0
tp1359
Rp1360
I26
I4294967295
tp1361
Rp1362
asI22
(lp1363
g525
(g526
(g527
(F0.09758118000000002
F0.0
F1.9075811800000004
tp1364
Rp1365
g530
(tRp1366
tp1367
Rp1368
g534
(S'APPID_4272549456_140617126233504'
p1369
g536
(I49
I29
I25
tp1370
Rp1371
F2.0
g536
(I40
I40
I40
tp1372
Rp1373
g536
(I0
I0
I0
tp1374
Rp1375
F1.0
F0.0
tp1376
Rp1377
I27
I4294967295
tp1378
Rp1379
ag525
(g526
(g527
(F0.13010824000000001
F0.0
F1.9401082400000005
tp1380
Rp1381
g530
(tRp1382
tp1383
Rp1384
g534
(S'APPID_4191934624_140617125945184'
p1385
g536
(I0
I31
I0
tp1386
Rp1387
F2.0
g536
(I40
I40
I40
tp1388
Rp1389
g536
(I0
I0
I0
tp1390
Rp1391
F1.0
F0.0
tp1392
Rp1393
I27
I4294967295
tp1394
Rp1395
ag525
(g526
(g527
(F0.10993319803407907
F-0.0392703283473
F1.9602832819659215
tp1396
Rp1397
g530
(tRp1398
tp1399
Rp1400
g534
(S'APPID_4191672480_140617125976128'
p1401
g536
(I0
I58
I6
tp1402
Rp1403
F2.0
g536
(I40
I40
I40
tp1404
Rp1405
g536
(I0
I0
I0
tp1406
Rp1407
F1.0
F0.0
tp1408
Rp1409
I27
I4294967295
tp1410
Rp1411
asI23
(lp1412
g525
(g526
(g527
(F0.13010824000000001
F0.0
F1.9401082400000005
tp1413
Rp1414
g530
(tRp1415
tp1416
Rp1417
g534
(S'APPID_4191981920_140617126274528'
p1418
g536
(I49
I29
I25
tp1419
Rp1420
F2.0
g536
(I40
I40
I40
tp1421
Rp1422
g536
(I0
I0
I0
tp1423
Rp1424
F1.0
F0.0
tp1425
Rp1426
I28
I4294967295
tp1427
Rp1428
ag525
(g526
(g527
(F0.1626353
F0.0
F1.9726353000000005
tp1429
Rp1430
g530
(tRp1431
tp1432
Rp1433
g534
(S'APPID_4272726976_140617207030624'
p1434
g536
(I0
I31
I0
tp1435
Rp1436
F2.0
g536
(I40
I40
I40
tp1437
Rp1438
g536
(I0
I0
I0
tp1439
Rp1440
F1.0
F0.0
tp1441
Rp1442
I28
I4294967295
tp1443
Rp1444
ag525
(g526
(g527
(F0.1626353
F0.054270055
F1.9726353000000005
tp1445
Rp1446
g530
(tRp1447
tp1448
Rp1449
g534
(S'APPID_4191568704_140617125872352'
p1450
g536
(I0
I58
I6
tp1451
Rp1452
F2.0
g536
(I40
I40
I40
tp1453
Rp1454
g536
(I0
I0
I0
tp1455
Rp1456
F1.0
F0.0
tp1457
Rp1458
I28
I4294967295
tp1459
Rp1460
asI24
(lp1461
g525
(g526
(g527
(F0.1626353
F0.0
F1.9726353000000005
tp1462
Rp1463
g530
(tRp1464
tp1465
Rp1466
g534
(S'APPID_4272627808_140617206931456'
p1467
g536
(I49
I29
I25
tp1468
Rp1469
F2.0
g536
(I40
I40
I40
tp1470
Rp1471
g536
(I0
I0
I0
tp1472
Rp1473
F1.0
F0.0
tp1474
Rp1475
I29
I4294967295
tp1476
Rp1477
ag525
(g526
(g527
(F0.19516236
F0.0
F2.0051623600000004
tp1478
Rp1479
g530
(tRp1480
tp1481
Rp1482
g534
(S'APPID_4271907344_140617206210992'
p1483
g536
(I0
I31
I0
tp1484
Rp1485
F2.0
g536
(I40
I40
I40
tp1486
Rp1487
g536
(I0
I0
I0
tp1488
Rp1489
F1.0
F0.0
tp1490
Rp1491
I29
I4294967295
tp1492
Rp1493
ag525
(g526
(g527
(F0.21987163781649197
F-0.048096130591319994
F1.9804530821835085
tp1494
Rp1495
g530
(tRp1496
tp1497
Rp1498
g534
(S'APPID_4191601264_140617125904912'
p1499
g536
(I0
I58
I6
tp1500
Rp1501
F2.0
g536
(I40
I40
I40
tp1502
Rp1503
g536
(I0
I0
I0
tp1504
Rp1505
F1.0
F0.0
tp1506
Rp1507
I29
I4294967295
tp1508
Rp1509
asI25
(lp1510
g525
(g526
(g527
(F0.19516236
F0.0
F2.0051623600000004
tp1511
Rp1512
g530
(tRp1513
tp1514
Rp1515
g534
(S'APPID_4272047424_140617126411424'
p1516
g536
(I49
I29
I25
tp1517
Rp1518
F2.0
g536
(I40
I40
I40
tp1519
Rp1520
g536
(I0
I0
I0
tp1521
Rp1522
F1.0
F0.0
tp1523
Rp1524
I30
I4294967295
tp1525
Rp1526
ag525
(g526
(g527
(F0.22768942
F0.0
F2.0376894200000004
tp1527
Rp1528
g530
(tRp1529
tp1530
Rp1531
g534
(S'APPID_4271948176_140617206251824'
p1532
g536
(I0
I31
I0
tp1533
Rp1534
F2.0
g536
(I40
I40
I40
tp1535
Rp1536
g536
(I0
I0
I0
tp1537
Rp1538
F1.0
F0.0
tp1539
Rp1540
I30
I4294967295
tp1541
Rp1542
ag525
(g526
(g527
(F0.1845057878320211
F0.01984316120988
F2.0808730521679792
tp1543
Rp1544
g530
(tRp1545
tp1546
Rp1547
g534
(S'APPID_4191927872_140617126008224'
p1548
g536
(I0
I58
I6
tp1549
Rp1550
F2.0
g536
(I40
I40
I40
tp1551
Rp1552
g536
(I0
I0
I0
tp1553
Rp1554
F1.0
F0.0
tp1555
Rp1556
I30
I4294967295
tp1557
Rp1558
asI26
(lp1559
g525
(g526
(g527
(F0.22768942
F0.0
F2.0376894200000004
tp1560
Rp1561
g530
(tRp1562
tp1563
Rp1564
g534
(S'APPID_4272126496_140617206430144'
p1565
g536
(I49
I29
I25
tp1566
Rp1567
F2.0
g536
(I40
I40
I40
tp1568
Rp1569
g536
(I0
I0
I0
tp1570
Rp1571
F1.0
F0.0
tp1572
Rp1573
I31
I4294967295
tp1574
Rp1575
ag525
(g526
(g527
(F0.26021648000000003
F0.0
F2.0702164800000005
tp1576
Rp1577
g530
(tRp1578
tp1579
Rp1580
g534
(S'APPID_4272733248_140617206969664'
p1581
g536
(I0
I31
I0
tp1582
Rp1583
F2.0
g536
(I40
I40
I40
tp1584
Rp1585
g536
(I0
I0
I0
tp1586
Rp1587
F1.0
F0.0
tp1588
Rp1589
I31
I4294967295
tp1590
Rp1591
ag525
(g526
(g527
(F0.30638172740965675
F0.02121323289992
F2.024051232590344
tp1592
Rp1593
g530
(tRp1594
tp1595
Rp1596
g534
(S'APPID_4191999744_140617206231792'
p1597
g536
(I0
I58
I6
tp1598
Rp1599
F2.0
g536
(I40
I40
I40
tp1600
Rp1601
g536
(I0
I0
I0
tp1602
Rp1603
F1.0
F0.0
tp1604
Rp1605
I31
I4294967295
tp1606
Rp1607
asI27
(lp1608
g525
(g526
(g527
(F0.0
F0.0
F1.8100000000000003
tp1609
Rp1610
g530
(tRp1611
tp1612
Rp1613
g534
(S'APPID_4272754816_140617126490320'
p1614
g536
(I49
I29
I25
tp1615
Rp1616
F2.0
g536
(I40
I40
I40
tp1617
Rp1618
g536
(I0
I0
I0
tp1619
Rp1620
F1.0
F0.0
tp1621
Rp1622
I34
I4294967295
tp1623
Rp1624
ag525
(g526
(g527
(F0.0
F0.0
F1.9910000000000003
tp1625
Rp1626
g530
(tRp1627
tp1628
Rp1629
g534
(S'APPID_4272784144_140617206932896'
p1630
g536
(I0
I31
I0
tp1631
Rp1632
F2.0
g536
(I40
I40
I40
tp1633
Rp1634
g536
(I0
I0
I0
tp1635
Rp1636
F1.0
F0.0
tp1637
Rp1638
I34
I4294967295
tp1639
Rp1640
ag525
(g526
(g527
(F0.04034990022084
F-0.055536630899919996
F1.9910000000000003
tp1641
Rp1642
g530
(tRp1643
tp1644
Rp1645
g534
(S'APPID_4272080176_140617206297248'
p1646
g536
(I0
I58
I6
tp1647
Rp1648
F2.0
g536
(I40
I40
I40
tp1649
Rp1650
g536
(I0
I0
I0
tp1651
Rp1652
F1.0
F0.0
tp1653
Rp1654
I34
I4294967295
tp1655
Rp1656
asI28
(lp1657
g525
(g526
(g527
(F0.0
F0.0
F1.9910000000000003
tp1658
Rp1659
g530
(tRp1660
tp1661
Rp1662
g534
(S'APPID_4191172624_140617207006064'
p1663
g536
(I49
I29
I25
tp1664
Rp1665
F2.0
g536
(I40
I40
I40
tp1666
Rp1667
g536
(I0
I0
I0
tp1668
Rp1669
F1.0
F0.0
tp1670
Rp1671
I35
I4294967295
tp1672
Rp1673
ag525
(g526
(g527
(F0.0
F0.0
F2.172
tp1674
Rp1675
g530
(tRp1676
tp1677
Rp1678
g534
(S'APPID_4191584016_140617125887664'
p1679
g536
(I0
I31
I0
tp1680
Rp1681
F2.0
g536
(I40
I40
I40
tp1682
Rp1683
g536
(I0
I0
I0
tp1684
Rp1685
F1.0
F0.0
tp1686
Rp1687
I35
I4294967295
tp1688
Rp1689
ag525
(g526
(g527
(F-0.06528722180376
F0.02121323289992
F2.172
tp1690
Rp1691
g530
(tRp1692
tp1693
Rp1694
g534
(S'APPID_4271928960_140617206257184'
p1695
g536
(I0
I58
I6
tp1696
Rp1697
F2.0
g536
(I40
I40
I40
tp1698
Rp1699
g536
(I0
I0
I0
tp1700
Rp1701
F1.0
F0.0
tp1702
Rp1703
I35
I4294967295
tp1704
Rp1705
asI29
(lp1706
g525
(g526
(g527
(F0.0
F0.0
F2.172
tp1707
Rp1708
g530
(tRp1709
tp1710
Rp1711
g534
(S'APPID_4272033856_140617206337504'
p1712
g536
(I49
I29
I25
tp1713
Rp1714
F2.0
g536
(I40
I40
I40
tp1715
Rp1716
g536
(I0
I0
I0
tp1717
Rp1718
F1.0
F0.0
tp1719
Rp1720
I36
I4294967295
tp1721
Rp1722
ag525
(g526
(g527
(F0.0
F0.0
F2.353
tp1723
Rp1724
g530
(tRp1725
tp1726
Rp1727
g534
(S'APPID_4272342848_140617206587888'
p1728
g536
(I0
I31
I0
tp1729
Rp1730
F2.0
g536
(I40
I40
I40
tp1731
Rp1732
g536
(I0
I0
I0
tp1733
Rp1734
F1.0
F0.0
tp1735
Rp1736
I36
I4294967295
tp1737
Rp1738
ag525
(g526
(g527
(F0.06528722180376
F0.02121323289992
F2.353
tp1739
Rp1740
g530
(tRp1741
tp1742
Rp1743
g534
(S'APPID_4271978256_140617206281904'
p1744
g536
(I0
I58
I6
tp1745
Rp1746
F2.0
g536
(I40
I40
I40
tp1747
Rp1748
g536
(I0
I0
I0
tp1749
Rp1750
F1.0
F0.0
tp1751
Rp1752
I36
I4294967295
tp1753
Rp1754
asI31
(lp1755
g525
(g526
(g527
(F0.0
F0.0
F2.353
tp1756
Rp1757
g530
(tRp1758
tp1759
Rp1760
g534
(S'APPID_4272753152_140617206993632'
p1761
g536
(I49
I29
I25
tp1762
Rp1763
F2.0
g536
(I40
I40
I40
tp1764
Rp1765
g536
(I0
I0
I0
tp1766
Rp1767
F1.0
F0.0
tp1768
Rp1769
I40
I4294967295
tp1770
Rp1771
ag525
(g526
(g527
(F0.01005146
F-0.030934999999999997
F2.3855270600000003
tp1772
Rp1773
g530
(tRp1774
tp1775
Rp1776
g534
(S'APPID_4272072640_140617126028160'
p1777
g536
(I0
I31
I0
tp1778
Rp1779
F2.0
g536
(I40
I40
I40
tp1780
Rp1781
g536
(I0
I0
I0
tp1782
Rp1783
F1.0
F0.0
tp1784
Rp1785
I40
I4294967295
tp1786
Rp1787
ag525
(g526
(g527
(F-0.0055055293361314685
F-0.04659643823084357
F2.375439539224856
tp1788
Rp1789
g530
(tRp1790
tp1791
Rp1792
g534
(S'APPID_4191757920_140617126061568'
p1793
g536
(I0
I58
I6
tp1794
Rp1795
F2.0
g536
(I40
I40
I40
tp1796
Rp1797
g536
(I0
I0
I0
tp1798
Rp1799
F1.0
F0.0
tp1800
Rp1801
I40
I4294967295
tp1802
Rp1803
asI32
(lp1804
g525
(g526
(g527
(F0.01005146
F-0.030934999999999997
F2.3855270600000003
tp1805
Rp1806
g530
(tRp1807
tp1808
Rp1809
g534
(S'APPID_4271922048_140617206253104'
p1810
g536
(I49
I29
I25
tp1811
Rp1812
F2.0
g536
(I40
I40
I40
tp1813
Rp1814
g536
(I0
I0
I0
tp1815
Rp1816
F1.0
F0.0
tp1817
Rp1818
I41
I4294967295
tp1819
Rp1820
ag525
(g526
(g527
(F0.02010292
F-0.061869999999999994
F2.4180541200000003
tp1821
Rp1822
g530
(tRp1823
tp1824
Rp1825
g534
(S'APPID_4272520560_140617206824208'
p1826
g536
(I0
I31
I0
tp1827
Rp1828
F2.0
g536
(I40
I40
I40
tp1829
Rp1830
g536
(I0
I0
I0
tp1831
Rp1832
F1.0
F0.0
tp1833
Rp1834
I41
I4294967295
tp1835
Rp1836
ag525
(g526
(g527
(F0.02305749322272916
F-0.03663951505311906
F2.4411367437048286
tp1837
Rp1838
g530
(tRp1839
tp1840
Rp1841
g534
(S'APPID_4191886736_140617206206416'
p1842
g536
(I0
I58
I6
tp1843
Rp1844
F2.0
g536
(I40
I40
I40
tp1845
Rp1846
g536
(I0
I0
I0
tp1847
Rp1848
F1.0
F0.0
tp1849
Rp1850
I41
I4294967295
tp1851
Rp1852
asI33
(lp1853
g525
(g526
(g527
(F0.02010292
F-0.061869999999999994
F2.4180541200000003
tp1854
Rp1855
g530
(tRp1856
tp1857
Rp1858
g534
(S'APPID_4272762560_140617207049360'
p1859
g536
(I49
I29
I25
tp1860
Rp1861
F2.0
g536
(I40
I40
I40
tp1862
Rp1863
g536
(I0
I0
I0
tp1864
Rp1865
F1.0
F0.0
tp1866
Rp1867
I42
I4294967295
tp1868
Rp1869
ag525
(g526
(g527
(F0.03015438
F-0.092805
F2.4505811800000004
tp1870
Rp1871
g530
(tRp1872
tp1873
Rp1874
g534
(S'APPID_4272801376_140617207105024'
p1875
g536
(I0
I31
I0
tp1876
Rp1877
F2.0
g536
(I40
I40
I40
tp1878
Rp1879
g536
(I0
I0
I0
tp1880
Rp1881
F1.0
F0.0
tp1882
Rp1883
I42
I4294967295
tp1884
Rp1885
ag525
(g526
(g527
(F0.05124507919846273
F-0.11567732041758348
F2.4223108554493114
tp1886
Rp1887
g530
(tRp1888
tp1889
Rp1890
g534
(S'APPID_4192029984_140617126332960'
p1891
g536
(I0
I58
I6
tp1892
Rp1893
F2.0
g536
(I40
I40
I40
tp1894
Rp1895
g536
(I0
I0
I0
tp1896
Rp1897
F1.0
F0.0
tp1898
Rp1899
I42
I4294967295
tp1900
Rp1901
asI34
(lp1902
g525
(g526
(g527
(F0.03015438
F-0.092805
F2.4505811800000004
tp1903
Rp1904
g530
(tRp1905
tp1906
Rp1907
g534
(S'APPID_4272286992_140617206933616'
p1908
g536
(I49
I29
I25
tp1909
Rp1910
F2.0
g536
(I40
I40
I40
tp1911
Rp1912
g536
(I0
I0
I0
tp1913
Rp1914
F1.0
F0.0
tp1915
Rp1916
I43
I4294967295
tp1917
Rp1918
ag525
(g526
(g527
(F0.04020584
F-0.12373999999999999
F2.4831082400000004
tp1919
Rp1920
g530
(tRp1921
tp1922
Rp1923
g534
(S'APPID_4272062464_140617206366112'
p1924
g536
(I0
I31
I0
tp1925
Rp1926
F2.0
g536
(I40
I40
I40
tp1927
Rp1928
g536
(I0
I0
I0
tp1929
Rp1930
F1.0
F0.0
tp1931
Rp1932
I43
I4294967295
tp1933
Rp1934
ag525
(g526
(g527
(F-0.003377057642714773
F-0.116687756624786
F2.5032832819659214
tp1935
Rp1936
g530
(tRp1937
tp1938
Rp1939
g534
(S'APPID_4191632272_140617126461760'
p1940
g536
(I0
I58
I6
tp1941
Rp1942
F2.0
g536
(I40
I40
I40
tp1943
Rp1944
g536
(I0
I0
I0
tp1945
Rp1946
F1.0
F0.0
tp1947
Rp1948
I43
I4294967295
tp1949
Rp1950
asI35
(lp1951
g525
(g526
(g527
(F0.04020584
F-0.12373999999999999
F2.4831082400000004
tp1952
Rp1953
g530
(tRp1954
tp1955
Rp1956
g534
(S'APPID_4272086512_140617206390160'
p1957
g536
(I49
I29
I25
tp1958
Rp1959
F2.0
g536
(I40
I40
I40
tp1960
Rp1961
g536
(I0
I0
I0
tp1962
Rp1963
F1.0
F0.0
tp1964
Rp1965
I44
I4294967295
tp1966
Rp1967
ag525
(g526
(g527
(F0.0502573
F-0.15467499999999998
F2.5156353000000005
tp1968
Rp1969
g530
(tRp1970
tp1971
Rp1972
g534
(S'APPID_4272492960_140617206796608'
p1973
g536
(I0
I31
I0
tp1974
Rp1975
F2.0
g536
(I40
I40
I40
tp1976
Rp1977
g536
(I0
I0
I0
tp1978
Rp1979
F1.0
F0.0
tp1980
Rp1981
I44
I4294967295
tp1982
Rp1983
ag525
(g526
(g527
(F0.1018713785083
F-0.1379044676039
F2.5156353000000005
tp1984
Rp1985
g530
(tRp1986
tp1987
Rp1988
g534
(S'APPID_4191606640_140617125910288'
p1989
g536
(I0
I58
I6
tp1990
Rp1991
F2.0
g536
(I40
I40
I40
tp1992
Rp1993
g536
(I0
I0
I0
tp1994
Rp1995
F1.0
F0.0
tp1996
Rp1997
I44
I4294967295
tp1998
Rp1999
asI36
(lp2000
g525
(g526
(g527
(F0.0502573
F-0.15467499999999998
F2.5156353000000005
tp2001
Rp2002
g530
(tRp2003
tp2004
Rp2005
g534
(S'APPID_4272720736_140617207024384'
p2006
g536
(I49
I29
I25
tp2007
Rp2008
F2.0
g536
(I40
I40
I40
tp2009
Rp2010
g536
(I0
I0
I0
tp2011
Rp2012
F1.0
F0.0
tp2013
Rp2014
I45
I4294967295
tp2015
Rp2016
ag525
(g526
(g527
(F0.060308759999999996
F-0.18560999999999997
F2.5481623600000005
tp2017
Rp2018
g530
(tRp2019
tp2020
Rp2021
g534
(S'APPID_4272256976_140617206560624'
p2022
g536
(I0
I31
I0
tp2023
Rp2024
F2.0
g536
(I40
I40
I40
tp2025
Rp2026
g536
(I0
I0
I0
tp2027
Rp2028
F1.0
F0.0
tp2029
Rp2030
I45
I4294967295
tp2031
Rp2032
ag525
(g526
(g527
(F0.022202075507033153
F-0.22397253098038383
F2.5234530821835084
tp2033
Rp2034
g530
(tRp2035
tp2036
Rp2037
g534
(S'APPID_4272635680_140617206939328'
p2038
g536
(I0
I58
I6
tp2039
Rp2040
F2.0
g536
(I40
I40
I40
tp2041
Rp2042
g536
(I0
I0
I0
tp2043
Rp2044
F1.0
F0.0
tp2045
Rp2046
I45
I4294967295
tp2047
Rp2048
asI37
(lp2049
g525
(g526
(g527
(F0.060308759999999996
F-0.18560999999999997
F2.5481623600000005
tp2050
Rp2051
g530
(tRp2052
tp2053
Rp2054
g534
(S'APPID_4272702912_140617206799424'
p2055
g536
(I49
I29
I25
tp2056
Rp2057
F2.0
g536
(I40
I40
I40
tp2058
Rp2059
g536
(I0
I0
I0
tp2060
Rp2061
F1.0
F0.0
tp2062
Rp2063
I46
I4294967295
tp2064
Rp2065
ag525
(g526
(g527
(F0.07036022
F-0.21654499999999996
F2.5806894200000006
tp2066
Rp2067
g530
(tRp2068
tp2069
Rp2070
g534
(S'APPID_4191570080_140617125873728'
p2071
g536
(I0
I31
I0
tp2072
Rp2073
F2.0
g536
(I40
I40
I40
tp2074
Rp2075
g536
(I0
I0
I0
tp2076
Rp2077
F1.0
F0.0
tp2078
Rp2079
I46
I4294967295
tp2080
Rp2081
ag525
(g526
(g527
(F0.07588772003185328
F-0.16934308763082995
F2.6238730521679794
tp2082
Rp2083
g530
(tRp2084
tp2085
Rp2086
g534
(S'APPID_4272671584_140617206975232'
p2087
g536
(I0
I58
I6
tp2088
Rp2089
F2.0
g536
(I40
I40
I40
tp2090
Rp2091
g536
(I0
I0
I0
tp2092
Rp2093
F1.0
F0.0
tp2094
Rp2095
I46
I4294967295
tp2096
Rp2097
asI38
(lp2098
g525
(g526
(g527
(F0.07036022
F-0.21654499999999996
F2.5806894200000006
tp2099
Rp2100
g530
(tRp2101
tp2102
Rp2103
g534
(S'APPID_4272019504_140617206317920'
p2104
g536
(I49
I29
I25
tp2105
Rp2106
F2.0
g536
(I40
I40
I40
tp2107
Rp2108
g536
(I0
I0
I0
tp2109
Rp2110
F1.0
F0.0
tp2111
Rp2112
I47
I4294967295
tp2113
Rp2114
ag525
(g526
(g527
(F0.08041168
F-0.24747999999999995
F2.6132164800000006
tp2115
Rp2116
g530
(tRp2117
tp2118
Rp2119
g534
(S'APPID_4272799024_140617207102672'
p2120
g536
(I0
I31
I0
tp2121
Rp2122
F2.0
g536
(I40
I40
I40
tp2123
Rp2124
g536
(I0
I0
I0
tp2125
Rp2126
F1.0
F0.0
tp2127
Rp2128
I47
I4294967295
tp2129
Rp2130
ag525
(g526
(g527
(F0.11425363026855313
F-0.2841807239928153
F2.5678541660948264
tp2131
Rp2132
g530
(tRp2133
tp2134
Rp2135
g534
(S'APPID_4233807712_140617208487552'
p2136
g536
(I0
I58
I6
tp2137
Rp2138
F2.0
g536
(I40
I40
I40
tp2139
Rp2140
g536
(I0
I0
I0
tp2141
Rp2142
F1.0
F0.0
tp2143
Rp2144
I47
I4294967295
tp2145
Rp2146
asI39
(lp2147
g525
(g526
(g527
(F0.08041168
F-0.24747999999999995
F2.6132164800000006
tp2148
Rp2149
g530
(tRp2150
tp2151
Rp2152
g534
(S'APPID_4191972832_140617126468352'
p2153
g536
(I49
I29
I25
tp2154
Rp2155
F2.0
g536
(I40
I40
I40
tp2156
Rp2157
g536
(I0
I0
I0
tp2158
Rp2159
F1.0
F0.0
tp2160
Rp2161
I48
I4294967295
tp2162
Rp2163
ag525
(g526
(g527
(F0.09811099000000001
F-0.30195249999999996
F2.6704923900000006
tp2164
Rp2165
g530
(tRp2166
tp2167
Rp2168
g534
(S'APPID_4233581840_140617205739136'
p2169
g536
(I0
I31
I0
tp2170
Rp2171
F2.0
g536
(I40
I40
I40
tp2172
Rp2173
g536
(I0
I0
I0
tp2174
Rp2175
F1.0
F0.0
tp2176
Rp2177
I48
I4294967295
tp2178
Rp2179
ag525
(g526
(g527
(F0.04322064205434776
F-0.2930705735196567
F2.695901785272567
tp2180
Rp2181
g530
(tRp2182
tp2183
Rp2184
g534
(S'APPID_4273358400_140617207503808'
p2185
g536
(I0
I58
I6
tp2186
Rp2187
F2.0
g536
(I40
I40
I40
tp2188
Rp2189
g536
(I0
I0
I0
tp2190
Rp2191
F1.0
F0.0
tp2192
Rp2193
I48
I4294967295
tp2194
Rp2195
asI40
(lp2196
g525
(g526
(g527
(F0.09811099000000001
F-0.30195249999999996
F2.6704923900000006
tp2197
Rp2198
g530
(tRp2199
tp2200
Rp2201
g534
(S'APPID_4191080096_140617168896176'
p2202
g536
(I49
I29
I25
tp2203
Rp2204
F2.0
g536
(I40
I40
I40
tp2205
Rp2206
g536
(I0
I0
I0
tp2207
Rp2208
F1.0
F0.0
tp2209
Rp2210
I53
I4294967295
tp2211
Rp2212
ag525
(g526
(g527
(F0.11144010000000001
F-0.342975
F2.713626100000001
tp2213
Rp2214
g530
(tRp2215
tp2216
Rp2217
g534
(S'APPID_4235236672_140617169602384'
p2218
g536
(I0
I31
I0
tp2219
Rp2220
F2.0
g536
(I40
I40
I40
tp2221
Rp2222
g536
(I0
I0
I0
tp2223
Rp2224
F1.0
F0.0
tp2225
Rp2226
I53
I4294967295
tp2227
Rp2228
ag525
(g526
(g527
(F0.15839433830262
F-0.32771855064845995
F2.713626100000001
tp2229
Rp2230
g530
(tRp2231
tp2232
Rp2233
g534
(S'APPID_4273144544_140617207466736'
p2234
g536
(I0
I58
I6
tp2235
Rp2236
F2.0
g536
(I40
I40
I40
tp2237
Rp2238
g536
(I0
I0
I0
tp2239
Rp2240
F1.0
F0.0
tp2241
Rp2242
I53
I4294967295
tp2243
Rp2244
asI41
(lp2245
g525
(g526
(g527
(F0.11144010000000001
F-0.342975
F2.713626100000001
tp2246
Rp2247
g530
(tRp2248
tp2249
Rp2250
g534
(S'APPID_4235309040_140617169654960'
p2251
g536
(I49
I29
I25
tp2252
Rp2253
F2.0
g536
(I40
I40
I40
tp2254
Rp2255
g536
(I0
I0
I0
tp2256
Rp2257
F1.0
F0.0
tp2258
Rp2259
I58
I4294967295
tp2260
Rp2261
ag525
(g526
(g527
(F0.12039901000000001
F-0.3705475
F2.742617610000001
tp2262
Rp2263
g530
(tRp2264
tp2265
Rp2266
g534
(S'APPID_4273554736_140617207662624'
p2267
g536
(I0
I31
I0
tp2268
Rp2269
F2.0
g536
(I40
I40
I40
tp2270
Rp2271
g536
(I0
I0
I0
tp2272
Rp2273
F1.0
F0.0
tp2274
Rp2275
I58
I4294967295
tp2276
Rp2277
ag525
(g526
(g527
(F0.09878075776636126
F-0.3923108961623658
F2.728599822636564
tp2278
Rp2279
g530
(tRp2280
tp2281
Rp2282
g534
(S'APPID_4273442208_140617207867216'
p2283
g536
(I0
I58
I6
tp2284
Rp2285
F2.0
g536
(I40
I40
I40
tp2286
Rp2287
g536
(I0
I0
I0
tp2288
Rp2289
F1.0
F0.0
tp2290
Rp2291
I58
I4294967295
tp2292
Rp2293
asI42
(lp2294
g525
(g526
(g527
(F0.12039901000000001
F-0.3705475
F2.742617610000001
tp2295
Rp2296
g530
(tRp2297
tp2298
Rp2299
g534
(S'APPID_4273397680_140617207629088'
p2300
g536
(I49
I29
I25
tp2301
Rp2302
F2.0
g536
(I40
I40
I40
tp2303
Rp2304
g536
(I0
I0
I0
tp2305
Rp2306
F1.0
F0.0
tp2307
Rp2308
I59
I4294967295
tp2309
Rp2310
ag525
(g526
(g527
(F0.12498772000000001
F-0.38466999999999996
F2.7574669200000006
tp2311
Rp2312
g530
(tRp2313
tp2314
Rp2315
g534
(S'APPID_4273427616_140617207731264'
p2316
g536
(I0
I31
I0
tp2317
Rp2318
F2.0
g536
(I40
I40
I40
tp2319
Rp2320
g536
(I0
I0
I0
tp2321
Rp2322
F1.0
F0.0
tp2323
Rp2324
I59
I4294967295
tp2325
Rp2326
ag525
(g526
(g527
(F0.12653953781141017
F-0.37141830069199644
F2.769590507367432
tp2327
Rp2328
g530
(tRp2329
tp2330
Rp2331
g534
(S'APPID_4231986336_140617166181328'
p2332
g536
(I0
I58
I6
tp2333
Rp2334
F2.0
g536
(I40
I40
I40
tp2335
Rp2336
g536
(I0
I0
I0
tp2337
Rp2338
F1.0
F0.0
tp2339
Rp2340
I59
I4294967295
tp2341
Rp2342
asI43
(lp2343
g525
(g526
(g527
(F0.12498772000000001
F-0.38466999999999996
F2.7574669200000006
tp2344
Rp2345
g530
(tRp2346
tp2347
Rp2348
g534
(S'APPID_4273427744_140617126555408'
p2349
g536
(I49
I29
I25
tp2350
Rp2351
F2.0
g536
(I40
I40
I40
tp2352
Rp2353
g536
(I0
I0
I0
tp2354
Rp2355
F1.0
F0.0
tp2356
Rp2357
I64
I4294967295
tp2358
Rp2359
asI44
(lp2360
g525
(g526
(g527
(F0.0
F0.0
F2.353
tp2361
Rp2362
g530
(tRp2363
tp2364
Rp2365
g534
(S'APPID_4272664288_140617206851296'
p2366
g536
(I49
I29
I25
tp2367
Rp2368
F2.0
g536
(I40
I40
I40
tp2369
Rp2370
g536
(I0
I0
I0
tp2371
Rp2372
F1.0
F0.0
tp2373
Rp2374
I67
I4294967295
tp2375
Rp2376
ag525
(g526
(g527
(F0.0
F0.0
F2.5340000000000003
tp2377
Rp2378
g530
(tRp2379
tp2380
Rp2381
g534
(S'APPID_4272741136_140617206996208'
p2382
g536
(I0
I31
I0
tp2383
Rp2384
F2.0
g536
(I40
I40
I40
tp2385
Rp2386
g536
(I0
I0
I0
tp2387
Rp2388
F1.0
F0.0
tp2389
Rp2390
I67
I4294967295
tp2391
Rp2392
ag525
(g526
(g527
(F-0.04034990022084
F-0.055536630899919996
F2.5340000000000003
tp2393
Rp2394
g530
(tRp2395
tp2396
Rp2397
g534
(S'APPID_4272117200_140617126322192'
p2398
g536
(I0
I58
I6
tp2399
Rp2400
F2.0
g536
(I40
I40
I40
tp2401
Rp2402
g536
(I0
I0
I0
tp2403
Rp2404
F1.0
F0.0
tp2405
Rp2406
I67
I4294967295
tp2407
Rp2408
asI45
(lp2409
g525
(g526
(g527
(F0.0
F0.0
F2.5340000000000003
tp2410
Rp2411
g530
(tRp2412
tp2413
Rp2414
g534
(S'APPID_4272687232_140617207037456'
p2415
g536
(I49
I29
I25
tp2416
Rp2417
F2.0
g536
(I40
I40
I40
tp2418
Rp2419
g536
(I0
I0
I0
tp2420
Rp2421
F1.0
F0.0
tp2422
Rp2423
I68
I4294967295
tp2424
Rp2425
ag525
(g526
(g527
(F0.0
F0.0
F2.7150000000000003
tp2426
Rp2427
g530
(tRp2428
tp2429
Rp2430
g534
(S'APPID_4272022800_140617126241040'
p2431
g536
(I0
I31
I0
tp2432
Rp2433
F2.0
g536
(I40
I40
I40
tp2434
Rp2435
g536
(I0
I0
I0
tp2436
Rp2437
F1.0
F0.0
tp2438
Rp2439
I68
I4294967295
tp2440
Rp2441
ag525
(g526
(g527
(F0.0
F0.068646796
F2.7150000000000003
tp2442
Rp2443
g530
(tRp2444
tp2445
Rp2446
g534
(S'APPID_4191993600_140617126061200'
p2447
g536
(I0
I58
I6
tp2448
Rp2449
F2.0
g536
(I40
I40
I40
tp2450
Rp2451
g536
(I0
I0
I0
tp2452
Rp2453
F1.0
F0.0
tp2454
Rp2455
I68
I4294967295
tp2456
Rp2457
asI46
(lp2458
g525
(g526
(g527
(F0.04034990022084
F-0.055536630899919996
F2.8960000000000004
tp2459
Rp2460
g530
(tRp2461
tp2462
Rp2463
g534
(S'APPID_4271916896_140617206220544'
p2464
g536
(I0
I58
I6
tp2465
Rp2466
F2.0
g536
(I40
I40
I40
tp2467
Rp2468
g536
(I0
I0
I0
tp2469
Rp2470
F1.0
F0.0
tp2471
Rp2472
I69
I4294967295
tp2473
Rp2474
ag525
(g526
(g527
(F0.0
F0.0
F2.7150000000000003
tp2475
Rp2476
g530
(tRp2477
tp2478
Rp2479
g534
(S'APPID_4272213744_140617206517392'
p2480
g536
(I49
I29
I25
tp2481
Rp2482
F2.0
g536
(I40
I40
I40
tp2483
Rp2484
g536
(I0
I0
I0
tp2485
Rp2486
F1.0
F0.0
tp2487
Rp2488
I69
I4294967295
tp2489
Rp2490
ag525
(g526
(g527
(F0.0
F0.0
F2.8960000000000004
tp2491
Rp2492
g530
(tRp2493
tp2494
Rp2495
g534
(S'APPID_4272079840_140617206383488'
p2496
g536
(I0
I31
I0
tp2497
Rp2498
F2.0
g536
(I40
I40
I40
tp2499
Rp2500
g536
(I0
I0
I0
tp2501
Rp2502
F1.0
F0.0
tp2503
Rp2504
I69
I4294967295
tp2505
Rp2506
asI47
(lp2507
g525
(g526
(g527
(F0.0
F0.0
F2.8960000000000004
tp2508
Rp2509
g530
(tRp2510
tp2511
Rp2512
g534
(S'APPID_4272496144_140617207055808'
p2513
g536
(I49
I29
I25
tp2514
Rp2515
F2.0
g536
(I40
I40
I40
tp2516
Rp2517
g536
(I0
I0
I0
tp2518
Rp2519
F1.0
F0.0
tp2520
Rp2521
I70
I4294967295
tp2522
Rp2523
ag525
(g526
(g527
(F0.0
F0.0
F3.0770000000000004
tp2524
Rp2525
g530
(tRp2526
tp2527
Rp2528
g534
(S'APPID_4191628960_140617125932608'
p2529
g536
(I0
I31
I0
tp2530
Rp2531
F2.0
g536
(I40
I40
I40
tp2532
Rp2533
g536
(I0
I0
I0
tp2534
Rp2535
F1.0
F0.0
tp2536
Rp2537
I70
I4294967295
tp2538
Rp2539
ag525
(g526
(g527
(F-0.06528722180376
F0.02121323289992
F3.0770000000000004
tp2540
Rp2541
g530
(tRp2542
tp2543
Rp2544
g534
(S'APPID_4191744304_140617126047952'
p2545
g536
(I0
I58
I6
tp2546
Rp2547
F2.0
g536
(I40
I40
I40
tp2548
Rp2549
g536
(I0
I0
I0
tp2550
Rp2551
F1.0
F0.0
tp2552
Rp2553
I70
I4294967295
tp2554
Rp2555
asI48
(lp2556
g525
(g526
(g527
(F0.0
F0.0
F3.0770000000000004
tp2557
Rp2558
g530
(tRp2559
tp2560
Rp2561
g534
(S'APPID_4271975152_140617206278800'
p2562
g536
(I49
I29
I25
tp2563
Rp2564
F2.0
g536
(I40
I40
I40
tp2565
Rp2566
g536
(I0
I0
I0
tp2567
Rp2568
F1.0
F0.0
tp2569
Rp2570
I71
I4294967295
tp2571
Rp2572
ag525
(g526
(g527
(F0.0
F0.0
F3.2580000000000005
tp2573
Rp2574
g530
(tRp2575
tp2576
Rp2577
g534
(S'APPID_4191898992_140617125903856'
p2578
g536
(I0
I31
I0
tp2579
Rp2580
F2.0
g536
(I40
I40
I40
tp2581
Rp2582
g536
(I0
I0
I0
tp2583
Rp2584
F1.0
F0.0
tp2585
Rp2586
I71
I4294967295
tp2587
Rp2588
ag525
(g526
(g527
(F0.06528722180376
F0.02121323289992
F3.2580000000000005
tp2589
Rp2590
g530
(tRp2591
tp2592
Rp2593
g534
(S'APPID_4272811968_140617207115616'
p2594
g536
(I0
I58
I6
tp2595
Rp2596
F2.0
g536
(I40
I40
I40
tp2597
Rp2598
g536
(I0
I0
I0
tp2599
Rp2600
F1.0
F0.0
tp2601
Rp2602
I71
I4294967295
tp2603
Rp2604
asI49
(lp2605
g525
(g526
(g527
(F0.0
F0.0
F3.2580000000000005
tp2606
Rp2607
g530
(tRp2608
tp2609
Rp2610
g534
(S'APPID_4192078384_140617126382032'
p2611
g536
(I49
I29
I25
tp2612
Rp2613
F2.0
g536
(I40
I40
I40
tp2614
Rp2615
g536
(I0
I0
I0
tp2616
Rp2617
F1.0
F0.0
tp2618
Rp2619
I72
I4294967295
tp2620
Rp2621
ag525
(g526
(g527
(F0.0
F0.0
F3.4390000000000005
tp2622
Rp2623
g530
(tRp2624
tp2625
Rp2626
g534
(S'APPID_4192075968_140617126379616'
p2627
g536
(I0
I31
I0
tp2628
Rp2629
F2.0
g536
(I40
I40
I40
tp2630
Rp2631
g536
(I0
I0
I0
tp2632
Rp2633
F1.0
F0.0
tp2634
Rp2635
I72
I4294967295
tp2636
Rp2637
ag525
(g526
(g527
(F-0.04034990022084
F-0.055536630899919996
F3.4390000000000005
tp2638
Rp2639
g530
(tRp2640
tp2641
Rp2642
g534
(S'APPID_4272037424_140617206323520'
p2643
g536
(I0
I58
I6
tp2644
Rp2645
F2.0
g536
(I40
I40
I40
tp2646
Rp2647
g536
(I0
I0
I0
tp2648
Rp2649
F1.0
F0.0
tp2650
Rp2651
I72
I4294967295
tp2652
Rp2653
asI50
(lp2654
g525
(g526
(g527
(F0.0
F0.068646796
F3.6200000000000006
tp2655
Rp2656
g530
(tRp2657
tp2658
Rp2659
g534
(S'APPID_4191602752_140617125906400'
p2660
g536
(I0
I58
I6
tp2661
Rp2662
F2.0
g536
(I40
I40
I40
tp2663
Rp2664
g536
(I0
I0
I0
tp2665
Rp2666
F1.0
F0.0
tp2667
Rp2668
I73
I4294967295
tp2669
Rp2670
ag525
(g526
(g527
(F0.0
F0.0
F3.4390000000000005
tp2671
Rp2672
g530
(tRp2673
tp2674
Rp2675
g534
(S'APPID_4272171632_140617206475280'
p2676
g536
(I49
I29
I25
tp2677
Rp2678
F2.0
g536
(I40
I40
I40
tp2679
Rp2680
g536
(I0
I0
I0
tp2681
Rp2682
F1.0
F0.0
tp2683
Rp2684
I73
I4294967295
tp2685
Rp2686
ag525
(g526
(g527
(F0.0
F0.0
F3.6200000000000006
tp2687
Rp2688
g530
(tRp2689
tp2690
Rp2691
g534
(S'APPID_4192010608_140617126314256'
p2692
g536
(I0
I31
I0
tp2693
Rp2694
F2.0
g536
(I40
I40
I40
tp2695
Rp2696
g536
(I0
I0
I0
tp2697
Rp2698
F1.0
F0.0
tp2699
Rp2700
I73
I4294967295
tp2701
Rp2702
asI51
(lp2703
g525
(g526
(g527
(F0.038933666651250004
F-0.053587361122499996
F3.8010000000000006
tp2704
Rp2705
g530
(tRp2706
tp2707
Rp2708
g534
(S'APPID_4235521152_140617125167712'
p2709
g536
(I0
I58
I6
tp2710
Rp2711
F2.0
g536
(I40
I40
I40
tp2712
Rp2713
g536
(I0
I0
I0
tp2714
Rp2715
F1.0
F0.0
tp2716
Rp2717
I74
I4294967295
tp2718
Rp2719
ag525
(g526
(g527
(F0.0
F0.0
F3.6200000000000006
tp2720
Rp2721
g530
(tRp2722
tp2723
Rp2724
g534
(S'APPID_4191671808_140617206228352'
p2725
g536
(I49
I29
I25
tp2726
Rp2727
F2.0
g536
(I40
I40
I40
tp2728
Rp2729
g536
(I0
I0
I0
tp2730
Rp2731
F1.0
F0.0
tp2732
Rp2733
I74
I4294967295
tp2734
Rp2735
ag525
(g526
(g527
(F0.0
F0.0
F3.8010000000000006
tp2736
Rp2737
g530
(tRp2738
tp2739
Rp2740
g534
(S'APPID_4272751184_140617207054832'
p2741
g536
(I0
I31
I0
tp2742
Rp2743
F2.0
g536
(I40
I40
I40
tp2744
Rp2745
g536
(I0
I0
I0
tp2746
Rp2747
F1.0
F0.0
tp2748
Rp2749
I74
I4294967295
tp2750
Rp2751
asI52
(lp2752
g525
(g526
(g527
(F-0.05284525135692
F0.01717056712964
F3.9420000000000006
tp2753
Rp2754
g530
(tRp2755
tp2756
Rp2757
g534
(S'APPID_4273260928_140617165989200'
p2758
g536
(I0
I58
I6
tp2759
Rp2760
F2.0
g536
(I40
I40
I40
tp2761
Rp2762
g536
(I0
I0
I0
tp2763
Rp2764
F1.0
F0.0
tp2765
Rp2766
I75
I4294967295
tp2767
Rp2768
ag525
(g526
(g527
(F0.0
F0.0
F3.8010000000000006
tp2769
Rp2770
g530
(tRp2771
tp2772
Rp2773
g534
(S'APPID_4272786256_140617207044000'
p2774
g536
(I49
I29
I25
tp2775
Rp2776
F2.0
g536
(I40
I40
I40
tp2777
Rp2778
g536
(I0
I0
I0
tp2779
Rp2780
F1.0
F0.0
tp2781
Rp2782
I75
I4294967295
tp2783
Rp2784
ag525
(g526
(g527
(F0.0
F0.0
F3.9420000000000006
tp2785
Rp2786
g530
(tRp2787
tp2788
Rp2789
g534
(S'APPID_4272222304_140617206525952'
p2790
g536
(I0
I31
I0
tp2791
Rp2792
F2.0
g536
(I40
I40
I40
tp2793
Rp2794
g536
(I0
I0
I0
tp2795
Rp2796
F1.0
F0.0
tp2797
Rp2798
I75
I4294967295
tp2799
Rp2800
asI53
(lp2801
g525
(g526
(g527
(F0.0402092095086
F0.013064843356200001
F4.043000000000001
tp2802
Rp2803
g530
(tRp2804
tp2805
Rp2806
g534
(S'APPID_4273676768_140617207448160'
p2807
g536
(I0
I58
I6
tp2808
Rp2809
F2.0
g536
(I40
I40
I40
tp2810
Rp2811
g536
(I0
I0
I0
tp2812
Rp2813
F1.0
F0.0
tp2814
Rp2815
I76
I4294967295
tp2816
Rp2817
ag525
(g526
(g527
(F0.0
F0.0
F3.9420000000000006
tp2818
Rp2819
g530
(tRp2820
tp2821
Rp2822
g534
(S'APPID_4272035456_140617206339104'
p2823
g536
(I49
I29
I25
tp2824
Rp2825
F2.0
g536
(I40
I40
I40
tp2826
Rp2827
g536
(I0
I0
I0
tp2828
Rp2829
F1.0
F0.0
tp2830
Rp2831
I76
I4294967295
tp2832
Rp2833
ag525
(g526
(g527
(F0.0
F0.0
F4.043000000000001
tp2834
Rp2835
g530
(tRp2836
tp2837
Rp2838
g534
(S'APPID_4233841584_140617168120176'
p2839
g536
(I0
I31
I0
tp2840
Rp2841
F2.0
g536
(I40
I40
I40
tp2842
Rp2843
g536
(I0
I0
I0
tp2844
Rp2845
F1.0
F0.0
tp2846
Rp2847
I76
I4294967295
tp2848
Rp2849
asI54
(lp2850
g525
(g526
(g527
(F-0.012977890059330002
F-0.01786245532554
F4.104000000000001
tp2851
Rp2852
g530
(tRp2853
tp2854
Rp2855
g534
(S'APPID_4231898864_140617166095504'
p2856
g536
(I0
I58
I6
tp2857
Rp2858
F2.0
g536
(I40
I40
I40
tp2859
Rp2860
g536
(I0
I0
I0
tp2861
Rp2862
F1.0
F0.0
tp2863
Rp2864
I77
I4294967295
tp2865
Rp2866
ag525
(g526
(g527
(F0.0
F0.0
F4.043000000000001
tp2867
Rp2868
g530
(tRp2869
tp2870
Rp2871
g534
(S'APPID_4235256368_140617169530208'
p2872
g536
(I49
I29
I25
tp2873
Rp2874
F2.0
g536
(I40
I40
I40
tp2875
Rp2876
g536
(I0
I0
I0
tp2877
Rp2878
F1.0
F0.0
tp2879
Rp2880
I77
I4294967295
tp2881
Rp2882
ag525
(g526
(g527
(F0.0
F0.0
F4.104000000000001
tp2883
Rp2884
g530
(tRp2885
tp2886
Rp2887
g534
(S'APPID_4231855088_140617207486608'
p2888
g536
(I0
I31
I0
tp2889
Rp2890
F2.0
g536
(I40
I40
I40
tp2891
Rp2892
g536
(I0
I0
I0
tp2893
Rp2894
F1.0
F0.0
tp2895
Rp2896
I77
I4294967295
tp2897
Rp2898
asI55
(lp2899
g525
(g526
(g527
(F0.0
F0.012747389
F4.125000000000001
tp2900
Rp2901
g530
(tRp2902
tp2903
Rp2904
g534
(S'APPID_4231927904_140617207538496'
p2905
g536
(I0
I58
I6
tp2906
Rp2907
F2.0
g536
(I40
I40
I40
tp2908
Rp2909
g536
(I0
I0
I0
tp2910
Rp2911
F1.0
F0.0
tp2912
Rp2913
I78
I4294967295
tp2914
Rp2915
ag525
(g526
(g527
(F0.0
F0.0
F4.104000000000001
tp2916
Rp2917
g530
(tRp2918
tp2919
Rp2920
g534
(S'APPID_4273505696_140617207835488'
p2921
g536
(I49
I29
I25
tp2922
Rp2923
F2.0
g536
(I40
I40
I40
tp2924
Rp2925
g536
(I0
I0
I0
tp2926
Rp2927
F1.0
F0.0
tp2928
Rp2929
I78
I4294967295
tp2930
Rp2931
ag525
(g526
(g527
(F0.0
F0.0
F4.125000000000001
tp2932
Rp2933
g530
(tRp2934
tp2935
Rp2936
g534
(S'APPID_4273672256_140617207975904'
p2937
g536
(I0
I31
I0
tp2938
Rp2939
F2.0
g536
(I40
I40
I40
tp2940
Rp2941
g536
(I0
I0
I0
tp2942
Rp2943
F1.0
F0.0
tp2944
Rp2945
I78
I4294967295
tp2946
Rp2947
assS'unit_id'
p2948
(dp2949
I3
S'0'
p2950
sI4
S'0'
p2951
sI5
S'0'
p2952
sI6
S'0'
p2953
sI7
S'0'
p2954
sI8
S'0'
p2955
sI9
S'0'
p2956
sI11
S'1'
p2957
sI12
S'1'
p2958
sI13
S'1'
p2959
sI14
S'1'
p2960
sI15
S'0'
p2961
sI16
S'0'
p2962
sI17
S'0'
p2963
sI19
S'2'
p2964
sI20
S'2'
p2965
sI21
S'2'
p2966
sI22
S'2'
p2967
sI23
S'2'
p2968
sI24
S'2'
p2969
sI25
S'2'
p2970
sI26
S'2'
p2971
sI27
S'0'
p2972
sI28
S'0'
p2973
sI29
S'0'
p2974
sI31
S'3'
p2975
sI32
S'3'
p2976
sI33
S'3'
p2977
sI34
S'3'
p2978
sI35
S'3'
p2979
sI36
S'3'
p2980
sI37
S'3'
p2981
sI38
S'3'
p2982
sI39
S'3'
p2983
sI40
S'3'
p2984
sI41
S'3'
p2985
sI42
S'3'
p2986
sI43
S'3'
p2987
sI44
S'0'
p2988
sI45
S'0'
p2989
sI46
S'0'
p2990
sI47
S'0'
p2991
sI48
S'0'
p2992
sI49
S'0'
p2993
sI50
S'0'
p2994
sI51
S'0'
p2995
sI52
S'0'
p2996
sI53
S'0'
p2997
sI54
S'0'
p2998
sI55
S'0'
p2999
ssS'label'
p3000
(dp3001
sS'length'
p3002
(dp3003
I3
F0.0181
sI4
F0.0181
sI5
F0.0181
sI6
F0.0181
sI7
F0.0181
sI8
F0.0181
sI9
F0.0181
sI11
F0.0046
sI12
F0.0046
sI13
F0.0046
sI14
F0.0046
sI15
F0.0181
sI16
F0.0181
sI17
F0.0181
sI19
F0.0046
sI20
F0.0046
sI21
F0.0046
sI22
F0.0046
sI23
F0.0046
sI24
F0.0046
sI25
F0.0046
sI26
F0.0046
sI27
F0.0181
sI28
F0.0181
sI29
F0.0181
sI31
F0.0046
sI32
F0.0046
sI33
F0.0046
sI34
F0.0046
sI35
F0.0046
sI36
F0.0046
sI37
F0.0046
sI38
F0.0046
sI39
F0.0081
sI40
F0.0061
sI41
F0.0041
sI42
F0.0021
sI43
F0.0001
sI44
F0.0181
sI45
F0.0181
sI46
F0.0181
sI47
F0.0181
sI48
F0.0181
sI49
F0.0181
sI50
F0.0181
sI51
F0.0181
sI52
F0.0141
sI53
F0.0101
sI54
F0.0061
sI55
F0.0021
ssS'fruit'
p3004
(dp3005
I3
F0.0
sI4
F0.0
sI5
F0.0
sI6
F0.0
sI7
F0.0
sI8
F0.0
sI9
F0.0
sI11
F0.0
sI12
F0.0
sI13
F0.0
sI14
F0.0
sI15
F0.0
sI16
F0.0
sI17
F0.0
sI19
F0.0
sI20
F0.0
sI21
F0.0
sI22
F0.0
sI23
F0.0
sI24
F0.0
sI25
F0.0
sI26
F0.0
sI27
F0.0
sI28
F0.0
sI29
F0.0
sI31
F0.0
sI32
F0.0
sI33
F0.0
sI34
F0.0
sI35
F0.0
sI36
F0.0
sI37
F0.0
sI38
F0.0
sI39
F0.0
sI40
F0.0
sI41
F0.0
sI42
F0.0
sI43
F0.0
sI44
F0.0
sI45
F0.0
sI46
F0.0
sI47
F0.0
sI48
F0.0
sI49
F0.0
sI50
F0.0
sI51
F0.0
sI52
F0.0
sI53
F0.0
sI54
F0.0
sI55
F0.0
ssS'TopDia'
p3006
(dp3007
I1
F5.6906
sI2
F5.6906
sI3
F5.6906
sI4
F5.6429
sI5
F5.5946
sI6
F5.5457
sI7
F5.4961
sI8
F5.4458
sI9
F5.3949
sI11
F2.1309
sI12
F1.9092
sI13
F1.6404
sI14
F1.2816
sI15
F5.1187
sI16
F5.0627
sI17
F5.0058
sI19
F2.7713
sI20
F2.6273
sI21
F2.4704
sI22
F2.2971
sI23
F2.1018
sI24
F1.8748
sI25
F1.597
sI26
F1.2177
sI27
F4.4406
sI28
F4.3712
sI29
F4.3001
sI31
F3.2553
sI32
F3.1435
sI33
F3.0254
sI34
F2.9001
sI35
F2.7661
sI36
F2.6217
sI37
F2.4643
sI38
F2.2903
sI39
F2.094
sI40
F1.8655
sI41
F1.5852
sI42
F1.2
sI43
F1.2
sI44
F3.1435
sI45
F3.0254
sI46
F2.9001
sI47
F2.7661
sI48
F2.6217
sI49
F2.4643
sI50
F2.2903
sI51
F2.094
sI52
F1.8655
sI53
F1.5852
sI54
F1.2
sI55
F1.2
ssS'light_per_surface'
p3008
(dp3009
I3
F18.20545478504333
sI4
F218.7414829428289
sI5
F0.36026602377742284
sI6
F198.9942054718965
sI7
F62.22941642798881
sI8
F17.266528236524593
sI9
F215.2396271608688
sI11
F56.8849026729273
sI12
F33.09841054675798
sI13
F87.84021876706522
sI14
F1.800546977662884
sI15
F12.758140535428186
sI16
F206.38228058777412
sI17
F123.08709503073608
sI19
F7.083958206657206
sI20
F4.126871107193121
sI21
F2.2372990736490728
sI22
F4.1884616299556
sI23
F30.759077066444927
sI24
F1.0236174937437386
sI25
F21.826068706317308
sI26
F1.4914517293016467
sI27
F20.934338383512124
sI28
F219.98377503154168
sI29
F2.587550194331223
sI31
F4.123185635388396
sI32
F1.0652351930416455
sI33
F0.2794389124308357
sI34
F57.69054331911848
sI35
F0.44880384323677713
sI36
F10.920332011456978
sI37
F42.871003678125206
sI38
F34.285296866060676
sI39
F86.09422520714948
sI40
F0.799357803101172
sI41
F106.61193810779186
sI42
F1.5625791368086588
sI44
F144.39126341912743
sI45
F120.76800155685505
sI46
F31.979458266709823
sI47
F228.63085398399252
sI48
F38.96127171949105
sI49
F229.26035198830584
sI50
F161.74025110157376
sI51
F196.86588881827697
sI52
F227.00992244364969
sI53
F215.71321071133994
sI54
F240.76066556670114
sI55
F239.38580182607242
sssS'_id'
p3010
I0
sb.